	.section	__TEXT,__text,regular,pure_instructions
	.build_version macos, 11, 0	sdk_version 11, 3
	.p2align	2                               ; -- Begin function _ZNSt3__16vectorINS_12basic_stringIcNS_11char_traitsIcEENS_9allocatorIcEEEENS4_IS6_EEED1Ev
__ZNSt3__16vectorINS_12basic_stringIcNS_11char_traitsIcEENS_9allocatorIcEEEENS4_IS6_EEED1Ev: ; @_ZNSt3__16vectorINS_12basic_stringIcNS_11char_traitsIcEENS_9allocatorIcEEEENS4_IS6_EEED1Ev
	.cfi_startproc
; %bb.0:
	stp	x22, x21, [sp, #-48]!           ; 16-byte Folded Spill
	stp	x20, x19, [sp, #16]             ; 16-byte Folded Spill
	stp	x29, x30, [sp, #32]             ; 16-byte Folded Spill
	add	x29, sp, #32                    ; =32
	.cfi_def_cfa w29, 16
	.cfi_offset w30, -8
	.cfi_offset w29, -16
	.cfi_offset w19, -24
	.cfi_offset w20, -32
	.cfi_offset w21, -40
	.cfi_offset w22, -48
	mov	x19, x0
	ldr	x20, [x0]
	cbz	x20, LBB0_8
; %bb.1:
	ldr	x8, [x19, #8]
	cmp	x8, x20
	b.ne	LBB0_4
; %bb.2:
	mov	x0, x20
	b	LBB0_7
LBB0_3:                                 ;   in Loop: Header=BB0_4 Depth=1
	mov	x8, x21
	cmp	x20, x21
	b.eq	LBB0_6
LBB0_4:                                 ; =>This Inner Loop Header: Depth=1
	sub	x21, x8, #24                    ; =24
	ldursb	w9, [x8, #-1]
	tbz	w9, #31, LBB0_3
; %bb.5:                                ;   in Loop: Header=BB0_4 Depth=1
	ldur	x0, [x8, #-24]
	bl	__ZdlPv
	b	LBB0_3
LBB0_6:
	ldr	x0, [x19]
LBB0_7:
	str	x20, [x19, #8]
	bl	__ZdlPv
LBB0_8:
	mov	x0, x19
	ldp	x29, x30, [sp, #32]             ; 16-byte Folded Reload
	ldp	x20, x19, [sp, #16]             ; 16-byte Folded Reload
	ldp	x22, x21, [sp], #48             ; 16-byte Folded Reload
	ret
	.cfi_endproc
                                        ; -- End function
	.globl	__Z21get_generator_by_nameNSt3__112basic_stringIcNS_11char_traitsIcEENS_9allocatorIcEEEE ; -- Begin function _Z21get_generator_by_nameNSt3__112basic_stringIcNS_11char_traitsIcEENS_9allocatorIcEEEE
	.p2align	2
__Z21get_generator_by_nameNSt3__112basic_stringIcNS_11char_traitsIcEENS_9allocatorIcEEEE: ; @_Z21get_generator_by_nameNSt3__112basic_stringIcNS_11char_traitsIcEENS_9allocatorIcEEEE
Lfunc_begin0:
	.cfi_startproc
	.cfi_personality 155, ___gxx_personality_v0
	.cfi_lsda 16, Lexception0
; %bb.0:
	sub	sp, sp, #48                     ; =48
	stp	x20, x19, [sp, #16]             ; 16-byte Folded Spill
	stp	x29, x30, [sp, #32]             ; 16-byte Folded Spill
	add	x29, sp, #32                    ; =32
	.cfi_def_cfa w29, 16
	.cfi_offset w30, -8
	.cfi_offset w29, -16
	.cfi_offset w19, -24
	.cfi_offset w20, -32
	mov	x19, x0
	ldrb	w8, [x0, #23]
	sxtb	w10, w8
	ldr	x9, [x0, #8]
	cmp	w10, #0                         ; =0
	csel	x11, x9, x8, lt
	cmp	x11, #7                         ; =7
	b.ne	LBB1_4
; %bb.1:
Ltmp0:
Lloh0:
	adrp	x3, l_.str@PAGE
Lloh1:
	add	x3, x3, l_.str@PAGEOFF
	mov	x0, x19
	mov	x1, #0
	mov	x2, #-1
	mov	w4, #7
	bl	__ZNKSt3__112basic_stringIcNS_11char_traitsIcEENS_9allocatorIcEEE7compareEmmPKcm
Ltmp1:
; %bb.2:
	cbz	w0, LBB1_36
; %bb.3:
	ldrb	w8, [x19, #23]
	ldr	x9, [x19, #8]
	mov	x10, x8
LBB1_4:
	sxtb	w11, w10
	cmp	w11, #0                         ; =0
	csel	x11, x9, x8, lt
	cmp	x11, #15                        ; =15
	b.ne	LBB1_8
; %bb.5:
Ltmp3:
Lloh2:
	adrp	x3, l_.str.1@PAGE
Lloh3:
	add	x3, x3, l_.str.1@PAGEOFF
	mov	x0, x19
	mov	x1, #0
	mov	x2, #-1
	mov	w4, #15
	bl	__ZNKSt3__112basic_stringIcNS_11char_traitsIcEENS_9allocatorIcEEE7compareEmmPKcm
Ltmp4:
; %bb.6:
	cbz	w0, LBB1_37
; %bb.7:
	ldrb	w8, [x19, #23]
	ldr	x9, [x19, #8]
	mov	x10, x8
LBB1_8:
	sxtb	w11, w10
	cmp	w11, #0                         ; =0
	csel	x11, x9, x8, lt
	cmp	x11, #16                        ; =16
	b.ne	LBB1_12
; %bb.9:
Ltmp6:
Lloh4:
	adrp	x3, l_.str.2@PAGE
Lloh5:
	add	x3, x3, l_.str.2@PAGEOFF
	mov	x0, x19
	mov	x1, #0
	mov	x2, #-1
	mov	w4, #16
	bl	__ZNKSt3__112basic_stringIcNS_11char_traitsIcEENS_9allocatorIcEEE7compareEmmPKcm
Ltmp7:
; %bb.10:
	cbz	w0, LBB1_38
; %bb.11:
	ldrb	w8, [x19, #23]
	ldr	x9, [x19, #8]
	mov	x10, x8
LBB1_12:
	sxtb	w11, w10
	cmp	w11, #0                         ; =0
	csel	x11, x9, x8, lt
	cmp	x11, #12                        ; =12
	b.ne	LBB1_16
; %bb.13:
Ltmp9:
Lloh6:
	adrp	x3, l_.str.3@PAGE
Lloh7:
	add	x3, x3, l_.str.3@PAGEOFF
	mov	x0, x19
	mov	x1, #0
	mov	x2, #-1
	mov	w4, #12
	bl	__ZNKSt3__112basic_stringIcNS_11char_traitsIcEENS_9allocatorIcEEE7compareEmmPKcm
Ltmp10:
; %bb.14:
	cbz	w0, LBB1_39
; %bb.15:
	ldrb	w8, [x19, #23]
	ldr	x9, [x19, #8]
	mov	x10, x8
LBB1_16:
	sxtb	w11, w10
	cmp	w11, #0                         ; =0
	csel	x11, x9, x8, lt
	cmp	x11, #12                        ; =12
	b.ne	LBB1_20
; %bb.17:
Ltmp12:
Lloh8:
	adrp	x3, l_.str.5@PAGE
Lloh9:
	add	x3, x3, l_.str.5@PAGEOFF
	mov	x0, x19
	mov	x1, #0
	mov	x2, #-1
	mov	w4, #12
	bl	__ZNKSt3__112basic_stringIcNS_11char_traitsIcEENS_9allocatorIcEEE7compareEmmPKcm
Ltmp13:
; %bb.18:
	cbz	w0, LBB1_40
; %bb.19:
	ldrb	w8, [x19, #23]
	ldr	x9, [x19, #8]
	mov	x10, x8
LBB1_20:
	sxtb	w11, w10
	cmp	w11, #0                         ; =0
	csel	x11, x9, x8, lt
	cmp	x11, #18                        ; =18
	b.ne	LBB1_24
; %bb.21:
Ltmp15:
Lloh10:
	adrp	x3, l_.str.6@PAGE
Lloh11:
	add	x3, x3, l_.str.6@PAGEOFF
	mov	x0, x19
	mov	x1, #0
	mov	x2, #-1
	mov	w4, #18
	bl	__ZNKSt3__112basic_stringIcNS_11char_traitsIcEENS_9allocatorIcEEE7compareEmmPKcm
Ltmp16:
; %bb.22:
	cbz	w0, LBB1_41
; %bb.23:
	ldrb	w8, [x19, #23]
	ldr	x9, [x19, #8]
	mov	x10, x8
LBB1_24:
	sxtb	w11, w10
	cmp	w11, #0                         ; =0
	csel	x11, x9, x8, lt
	cmp	x11, #9                         ; =9
	b.ne	LBB1_28
; %bb.25:
Ltmp18:
Lloh12:
	adrp	x3, l_.str.4@PAGE
Lloh13:
	add	x3, x3, l_.str.4@PAGEOFF
	mov	x0, x19
	mov	x1, #0
	mov	x2, #-1
	mov	w4, #9
	bl	__ZNKSt3__112basic_stringIcNS_11char_traitsIcEENS_9allocatorIcEEE7compareEmmPKcm
Ltmp19:
; %bb.26:
	cbz	w0, LBB1_42
; %bb.27:
	ldrb	w8, [x19, #23]
	ldr	x9, [x19, #8]
	mov	x10, x8
LBB1_28:
	sxtb	w10, w10
	cmp	w10, #0                         ; =0
	csel	x8, x9, x8, lt
	cmp	x8, #8                          ; =8
	b.ne	LBB1_31
; %bb.29:
Ltmp21:
Lloh14:
	adrp	x3, l_.str.7@PAGE
Lloh15:
	add	x3, x3, l_.str.7@PAGEOFF
	mov	x0, x19
	mov	x1, #0
	mov	x2, #-1
	mov	w4, #8
	bl	__ZNKSt3__112basic_stringIcNS_11char_traitsIcEENS_9allocatorIcEEE7compareEmmPKcm
Ltmp22:
; %bb.30:
	cbz	w0, LBB1_44
LBB1_31:
Lloh16:
	adrp	x0, __ZNSt3__14cerrE@GOTPAGE
Lloh17:
	ldr	x0, [x0, __ZNSt3__14cerrE@GOTPAGEOFF]
Lloh18:
	adrp	x1, l_.str.8@PAGE
Lloh19:
	add	x1, x1, l_.str.8@PAGEOFF
	mov	w2, #20
	bl	__ZNSt3__124__put_character_sequenceIcNS_11char_traitsIcEEEERNS_13basic_ostreamIT_T0_EES7_PKS4_m
	ldrb	w8, [x19, #23]
	sxtb	w9, w8
	ldp	x10, x11, [x19]
	cmp	w9, #0                          ; =0
	csel	x1, x10, x19, lt
	csel	x2, x11, x8, lt
	bl	__ZNSt3__124__put_character_sequenceIcNS_11char_traitsIcEEEERNS_13basic_ostreamIT_T0_EES7_PKS4_m
	mov	x19, x0
	ldr	x8, [x0]
	ldur	x8, [x8, #-24]
	add	x0, x0, x8
	add	x8, sp, #8                      ; =8
	bl	__ZNKSt3__18ios_base6getlocEv
Ltmp24:
Lloh20:
	adrp	x1, __ZNSt3__15ctypeIcE2idE@GOTPAGE
Lloh21:
	ldr	x1, [x1, __ZNSt3__15ctypeIcE2idE@GOTPAGEOFF]
	add	x0, sp, #8                      ; =8
	bl	__ZNKSt3__16locale9use_facetERNS0_2idE
Ltmp25:
; %bb.32:
	ldr	x8, [x0]
	ldr	x8, [x8, #56]
Ltmp26:
	mov	w1, #10
	blr	x8
Ltmp27:
; %bb.33:
	mov	x20, x0
	add	x0, sp, #8                      ; =8
	bl	__ZNSt3__16localeD1Ev
	mov	x0, x19
	mov	x1, x20
	bl	__ZNSt3__113basic_ostreamIcNS_11char_traitsIcEEE3putEc
	mov	x0, x19
	bl	__ZNSt3__113basic_ostreamIcNS_11char_traitsIcEEE5flushEv
Lloh22:
	adrp	x0, __ZNSt3__14cerrE@GOTPAGE
Lloh23:
	ldr	x0, [x0, __ZNSt3__14cerrE@GOTPAGEOFF]
Lloh24:
	adrp	x1, l_.str.9@PAGE
Lloh25:
	add	x1, x1, l_.str.9@PAGEOFF
	mov	w2, #45
	bl	__ZNSt3__124__put_character_sequenceIcNS_11char_traitsIcEEEERNS_13basic_ostreamIT_T0_EES7_PKS4_m
	mov	x19, x0
	ldr	x8, [x0]
	ldur	x8, [x8, #-24]
	add	x0, x0, x8
	add	x8, sp, #8                      ; =8
	bl	__ZNKSt3__18ios_base6getlocEv
Ltmp29:
Lloh26:
	adrp	x1, __ZNSt3__15ctypeIcE2idE@GOTPAGE
Lloh27:
	ldr	x1, [x1, __ZNSt3__15ctypeIcE2idE@GOTPAGEOFF]
	add	x0, sp, #8                      ; =8
	bl	__ZNKSt3__16locale9use_facetERNS0_2idE
Ltmp30:
; %bb.34:
	ldr	x8, [x0]
	ldr	x8, [x8, #56]
Ltmp31:
	mov	w1, #10
	blr	x8
Ltmp32:
; %bb.35:
	mov	x20, x0
	add	x0, sp, #8                      ; =8
	bl	__ZNSt3__16localeD1Ev
	mov	x0, x19
	mov	x1, x20
	bl	__ZNSt3__113basic_ostreamIcNS_11char_traitsIcEEE3putEc
	mov	x0, x19
	bl	__ZNSt3__113basic_ostreamIcNS_11char_traitsIcEEE5flushEv
	mov	w0, #2536
	bl	__Znwm
	mov	x19, x0
Ltmp34:
	fmov	d1, #1.00000000
	movi.2d	v0, #0000000000000000
	bl	__ZN17uniform_generatorC2Edd
Ltmp35:
	b	LBB1_45
LBB1_36:
	mov	w0, #2536
	bl	__Znwm
	mov	x19, x0
Ltmp61:
	fmov	d1, #1.00000000
	movi.2d	v0, #0000000000000000
	bl	__ZN17uniform_generatorC2Edd
Ltmp62:
	b	LBB1_45
LBB1_37:
	mov	w0, #2520
	bl	__Znwm
	mov	x19, x0
Ltmp58:
	bl	__ZN15one_over_rand32C2Ev
Ltmp59:
	b	LBB1_45
LBB1_38:
	mov	w0, #2520
	bl	__Znwm
	mov	x19, x0
Ltmp55:
	bl	__ZN16simple_uniform32C2Ev
Ltmp56:
	b	LBB1_45
LBB1_39:
	mov	w0, #2520
	bl	__Znwm
	mov	x19, x0
Ltmp52:
	bl	__ZN12simple_int32C2Ev
Ltmp53:
	b	LBB1_45
LBB1_40:
	mov	w0, #2520
	bl	__Znwm
	mov	x19, x0
Ltmp49:
	bl	__ZN12simple_int64C2Ev
Ltmp50:
	b	LBB1_45
LBB1_41:
	mov	w0, #2528
	bl	__Znwm
	mov	x19, x0
Lloh28:
	adrp	x8, __ZTV18bigint_int_dot_int@GOTPAGE
Lloh29:
	ldr	x8, [x8, __ZTV18bigint_int_dot_int@GOTPAGEOFF]
	add	x8, x8, #16                     ; =16
	str	x8, [x0], #8
Ltmp46:
	bl	__ZN12simple_int32C2Ev
Ltmp47:
	b	LBB1_45
LBB1_42:
	mov	w0, #5064
	bl	__Znwm
	mov	x19, x0
Lloh30:
	adrp	x8, __ZTV9int_e_int@GOTPAGE
Lloh31:
	ldr	x8, [x8, __ZTV9int_e_int@GOTPAGEOFF]
	add	x8, x8, #16                     ; =16
	str	x8, [x0], #8
Ltmp40:
	bl	__ZN12simple_int32C2Ev
Ltmp41:
; %bb.43:
	add	x0, x19, #2528                  ; =2528
Ltmp43:
	mov	x1, #0
	mov	w2, #99
	bl	__ZN25integer_uniform_generatorC2Eyy
Ltmp44:
	b	LBB1_45
LBB1_44:
	mov	w0, #2528
	bl	__Znwm
	mov	x19, x0
Lloh32:
	adrp	x8, __ZTV8big_ints@GOTPAGE
Lloh33:
	ldr	x8, [x8, __ZTV8big_ints@GOTPAGEOFF]
	add	x8, x8, #16                     ; =16
	str	x8, [x0], #8
Ltmp37:
	bl	__ZN12simple_int64C2Ev
Ltmp38:
LBB1_45:
	mov	x0, x19
	ldp	x29, x30, [sp, #32]             ; 16-byte Folded Reload
	ldp	x20, x19, [sp, #16]             ; 16-byte Folded Reload
	add	sp, sp, #48                     ; =48
	ret
LBB1_46:
Ltmp39:
	b	LBB1_59
LBB1_47:
Ltmp45:
	mov	x20, x0
Lloh34:
	adrp	x8, __ZTV12simple_int32@GOTPAGE
Lloh35:
	ldr	x8, [x8, __ZTV12simple_int32@GOTPAGEOFF]
	add	x8, x8, #16                     ; =16
	str	x8, [x19, #8]
	add	x0, x19, #16                    ; =16
	bl	__ZNSt3__113random_deviceD1Ev
	b	LBB1_60
LBB1_48:
Ltmp42:
	b	LBB1_59
LBB1_49:
Ltmp48:
	b	LBB1_59
LBB1_50:
Ltmp51:
	b	LBB1_59
LBB1_51:
Ltmp54:
	b	LBB1_59
LBB1_52:
Ltmp23:
	bl	___clang_call_terminate
LBB1_53:
Ltmp57:
	b	LBB1_59
LBB1_54:
Ltmp20:
	bl	___clang_call_terminate
LBB1_55:
Ltmp60:
	b	LBB1_59
LBB1_56:
Ltmp17:
	bl	___clang_call_terminate
LBB1_57:
Ltmp63:
	b	LBB1_59
LBB1_58:
Ltmp36:
LBB1_59:
	mov	x20, x0
LBB1_60:
	mov	x0, x19
	bl	__ZdlPv
	b	LBB1_67
LBB1_61:
Ltmp14:
	bl	___clang_call_terminate
LBB1_62:
Ltmp11:
	bl	___clang_call_terminate
LBB1_63:
Ltmp8:
	bl	___clang_call_terminate
LBB1_64:
Ltmp33:
	b	LBB1_66
LBB1_65:
Ltmp28:
LBB1_66:
	mov	x20, x0
	add	x0, sp, #8                      ; =8
	bl	__ZNSt3__16localeD1Ev
LBB1_67:
	mov	x0, x20
	bl	__Unwind_Resume
	brk	#0x1
LBB1_68:
Ltmp5:
	bl	___clang_call_terminate
LBB1_69:
Ltmp2:
	bl	___clang_call_terminate
	.loh AdrpAdd	Lloh0, Lloh1
	.loh AdrpAdd	Lloh2, Lloh3
	.loh AdrpAdd	Lloh4, Lloh5
	.loh AdrpAdd	Lloh6, Lloh7
	.loh AdrpAdd	Lloh8, Lloh9
	.loh AdrpAdd	Lloh10, Lloh11
	.loh AdrpAdd	Lloh12, Lloh13
	.loh AdrpAdd	Lloh14, Lloh15
	.loh AdrpLdrGot	Lloh20, Lloh21
	.loh AdrpAdd	Lloh18, Lloh19
	.loh AdrpLdrGot	Lloh16, Lloh17
	.loh AdrpLdrGot	Lloh26, Lloh27
	.loh AdrpAdd	Lloh24, Lloh25
	.loh AdrpLdrGot	Lloh22, Lloh23
	.loh AdrpLdrGot	Lloh28, Lloh29
	.loh AdrpLdrGot	Lloh30, Lloh31
	.loh AdrpLdrGot	Lloh32, Lloh33
	.loh AdrpLdrGot	Lloh34, Lloh35
Lfunc_end0:
	.cfi_endproc
	.section	__TEXT,__gcc_except_tab
	.p2align	2
GCC_except_table1:
Lexception0:
	.byte	255                             ; @LPStart Encoding = omit
	.byte	155                             ; @TType Encoding = indirect pcrel sdata4
	.uleb128 Lttbase0-Lttbaseref0
Lttbaseref0:
	.byte	1                               ; Call site Encoding = uleb128
	.uleb128 Lcst_end0-Lcst_begin0
Lcst_begin0:
	.uleb128 Ltmp0-Lfunc_begin0             ; >> Call Site 1 <<
	.uleb128 Ltmp1-Ltmp0                    ;   Call between Ltmp0 and Ltmp1
	.uleb128 Ltmp2-Lfunc_begin0             ;     jumps to Ltmp2
	.byte	1                               ;   On action: 1
	.uleb128 Ltmp3-Lfunc_begin0             ; >> Call Site 2 <<
	.uleb128 Ltmp4-Ltmp3                    ;   Call between Ltmp3 and Ltmp4
	.uleb128 Ltmp5-Lfunc_begin0             ;     jumps to Ltmp5
	.byte	1                               ;   On action: 1
	.uleb128 Ltmp6-Lfunc_begin0             ; >> Call Site 3 <<
	.uleb128 Ltmp7-Ltmp6                    ;   Call between Ltmp6 and Ltmp7
	.uleb128 Ltmp8-Lfunc_begin0             ;     jumps to Ltmp8
	.byte	1                               ;   On action: 1
	.uleb128 Ltmp9-Lfunc_begin0             ; >> Call Site 4 <<
	.uleb128 Ltmp10-Ltmp9                   ;   Call between Ltmp9 and Ltmp10
	.uleb128 Ltmp11-Lfunc_begin0            ;     jumps to Ltmp11
	.byte	1                               ;   On action: 1
	.uleb128 Ltmp12-Lfunc_begin0            ; >> Call Site 5 <<
	.uleb128 Ltmp13-Ltmp12                  ;   Call between Ltmp12 and Ltmp13
	.uleb128 Ltmp14-Lfunc_begin0            ;     jumps to Ltmp14
	.byte	1                               ;   On action: 1
	.uleb128 Ltmp15-Lfunc_begin0            ; >> Call Site 6 <<
	.uleb128 Ltmp16-Ltmp15                  ;   Call between Ltmp15 and Ltmp16
	.uleb128 Ltmp17-Lfunc_begin0            ;     jumps to Ltmp17
	.byte	1                               ;   On action: 1
	.uleb128 Ltmp18-Lfunc_begin0            ; >> Call Site 7 <<
	.uleb128 Ltmp19-Ltmp18                  ;   Call between Ltmp18 and Ltmp19
	.uleb128 Ltmp20-Lfunc_begin0            ;     jumps to Ltmp20
	.byte	1                               ;   On action: 1
	.uleb128 Ltmp21-Lfunc_begin0            ; >> Call Site 8 <<
	.uleb128 Ltmp22-Ltmp21                  ;   Call between Ltmp21 and Ltmp22
	.uleb128 Ltmp23-Lfunc_begin0            ;     jumps to Ltmp23
	.byte	1                               ;   On action: 1
	.uleb128 Ltmp22-Lfunc_begin0            ; >> Call Site 9 <<
	.uleb128 Ltmp24-Ltmp22                  ;   Call between Ltmp22 and Ltmp24
	.byte	0                               ;     has no landing pad
	.byte	0                               ;   On action: cleanup
	.uleb128 Ltmp24-Lfunc_begin0            ; >> Call Site 10 <<
	.uleb128 Ltmp27-Ltmp24                  ;   Call between Ltmp24 and Ltmp27
	.uleb128 Ltmp28-Lfunc_begin0            ;     jumps to Ltmp28
	.byte	0                               ;   On action: cleanup
	.uleb128 Ltmp27-Lfunc_begin0            ; >> Call Site 11 <<
	.uleb128 Ltmp29-Ltmp27                  ;   Call between Ltmp27 and Ltmp29
	.byte	0                               ;     has no landing pad
	.byte	0                               ;   On action: cleanup
	.uleb128 Ltmp29-Lfunc_begin0            ; >> Call Site 12 <<
	.uleb128 Ltmp32-Ltmp29                  ;   Call between Ltmp29 and Ltmp32
	.uleb128 Ltmp33-Lfunc_begin0            ;     jumps to Ltmp33
	.byte	0                               ;   On action: cleanup
	.uleb128 Ltmp32-Lfunc_begin0            ; >> Call Site 13 <<
	.uleb128 Ltmp34-Ltmp32                  ;   Call between Ltmp32 and Ltmp34
	.byte	0                               ;     has no landing pad
	.byte	0                               ;   On action: cleanup
	.uleb128 Ltmp34-Lfunc_begin0            ; >> Call Site 14 <<
	.uleb128 Ltmp35-Ltmp34                  ;   Call between Ltmp34 and Ltmp35
	.uleb128 Ltmp36-Lfunc_begin0            ;     jumps to Ltmp36
	.byte	0                               ;   On action: cleanup
	.uleb128 Ltmp35-Lfunc_begin0            ; >> Call Site 15 <<
	.uleb128 Ltmp61-Ltmp35                  ;   Call between Ltmp35 and Ltmp61
	.byte	0                               ;     has no landing pad
	.byte	0                               ;   On action: cleanup
	.uleb128 Ltmp61-Lfunc_begin0            ; >> Call Site 16 <<
	.uleb128 Ltmp62-Ltmp61                  ;   Call between Ltmp61 and Ltmp62
	.uleb128 Ltmp63-Lfunc_begin0            ;     jumps to Ltmp63
	.byte	0                               ;   On action: cleanup
	.uleb128 Ltmp62-Lfunc_begin0            ; >> Call Site 17 <<
	.uleb128 Ltmp58-Ltmp62                  ;   Call between Ltmp62 and Ltmp58
	.byte	0                               ;     has no landing pad
	.byte	0                               ;   On action: cleanup
	.uleb128 Ltmp58-Lfunc_begin0            ; >> Call Site 18 <<
	.uleb128 Ltmp59-Ltmp58                  ;   Call between Ltmp58 and Ltmp59
	.uleb128 Ltmp60-Lfunc_begin0            ;     jumps to Ltmp60
	.byte	0                               ;   On action: cleanup
	.uleb128 Ltmp59-Lfunc_begin0            ; >> Call Site 19 <<
	.uleb128 Ltmp55-Ltmp59                  ;   Call between Ltmp59 and Ltmp55
	.byte	0                               ;     has no landing pad
	.byte	0                               ;   On action: cleanup
	.uleb128 Ltmp55-Lfunc_begin0            ; >> Call Site 20 <<
	.uleb128 Ltmp56-Ltmp55                  ;   Call between Ltmp55 and Ltmp56
	.uleb128 Ltmp57-Lfunc_begin0            ;     jumps to Ltmp57
	.byte	0                               ;   On action: cleanup
	.uleb128 Ltmp56-Lfunc_begin0            ; >> Call Site 21 <<
	.uleb128 Ltmp52-Ltmp56                  ;   Call between Ltmp56 and Ltmp52
	.byte	0                               ;     has no landing pad
	.byte	0                               ;   On action: cleanup
	.uleb128 Ltmp52-Lfunc_begin0            ; >> Call Site 22 <<
	.uleb128 Ltmp53-Ltmp52                  ;   Call between Ltmp52 and Ltmp53
	.uleb128 Ltmp54-Lfunc_begin0            ;     jumps to Ltmp54
	.byte	0                               ;   On action: cleanup
	.uleb128 Ltmp53-Lfunc_begin0            ; >> Call Site 23 <<
	.uleb128 Ltmp49-Ltmp53                  ;   Call between Ltmp53 and Ltmp49
	.byte	0                               ;     has no landing pad
	.byte	0                               ;   On action: cleanup
	.uleb128 Ltmp49-Lfunc_begin0            ; >> Call Site 24 <<
	.uleb128 Ltmp50-Ltmp49                  ;   Call between Ltmp49 and Ltmp50
	.uleb128 Ltmp51-Lfunc_begin0            ;     jumps to Ltmp51
	.byte	0                               ;   On action: cleanup
	.uleb128 Ltmp50-Lfunc_begin0            ; >> Call Site 25 <<
	.uleb128 Ltmp46-Ltmp50                  ;   Call between Ltmp50 and Ltmp46
	.byte	0                               ;     has no landing pad
	.byte	0                               ;   On action: cleanup
	.uleb128 Ltmp46-Lfunc_begin0            ; >> Call Site 26 <<
	.uleb128 Ltmp47-Ltmp46                  ;   Call between Ltmp46 and Ltmp47
	.uleb128 Ltmp48-Lfunc_begin0            ;     jumps to Ltmp48
	.byte	0                               ;   On action: cleanup
	.uleb128 Ltmp47-Lfunc_begin0            ; >> Call Site 27 <<
	.uleb128 Ltmp40-Ltmp47                  ;   Call between Ltmp47 and Ltmp40
	.byte	0                               ;     has no landing pad
	.byte	0                               ;   On action: cleanup
	.uleb128 Ltmp40-Lfunc_begin0            ; >> Call Site 28 <<
	.uleb128 Ltmp41-Ltmp40                  ;   Call between Ltmp40 and Ltmp41
	.uleb128 Ltmp42-Lfunc_begin0            ;     jumps to Ltmp42
	.byte	0                               ;   On action: cleanup
	.uleb128 Ltmp43-Lfunc_begin0            ; >> Call Site 29 <<
	.uleb128 Ltmp44-Ltmp43                  ;   Call between Ltmp43 and Ltmp44
	.uleb128 Ltmp45-Lfunc_begin0            ;     jumps to Ltmp45
	.byte	0                               ;   On action: cleanup
	.uleb128 Ltmp44-Lfunc_begin0            ; >> Call Site 30 <<
	.uleb128 Ltmp37-Ltmp44                  ;   Call between Ltmp44 and Ltmp37
	.byte	0                               ;     has no landing pad
	.byte	0                               ;   On action: cleanup
	.uleb128 Ltmp37-Lfunc_begin0            ; >> Call Site 31 <<
	.uleb128 Ltmp38-Ltmp37                  ;   Call between Ltmp37 and Ltmp38
	.uleb128 Ltmp39-Lfunc_begin0            ;     jumps to Ltmp39
	.byte	0                               ;   On action: cleanup
	.uleb128 Ltmp38-Lfunc_begin0            ; >> Call Site 32 <<
	.uleb128 Lfunc_end0-Ltmp38              ;   Call between Ltmp38 and Lfunc_end0
	.byte	0                               ;     has no landing pad
	.byte	0                               ;   On action: cleanup
Lcst_end0:
	.byte	1                               ; >> Action Record 1 <<
                                        ;   Catch TypeInfo 1
	.byte	0                               ;   No further actions
	.p2align	2
                                        ; >> Catch TypeInfos <<
	.long	0                               ; TypeInfo 1
Lttbase0:
	.p2align	2
                                        ; -- End function
	.section	__TEXT,__text,regular,pure_instructions
	.globl	__Z14findmax_strtodRNSt3__16vectorINS_12basic_stringIcNS_11char_traitsIcEENS_9allocatorIcEEEENS4_IS6_EEEE ; -- Begin function _Z14findmax_strtodRNSt3__16vectorINS_12basic_stringIcNS_11char_traitsIcEENS_9allocatorIcEEEENS4_IS6_EEEE
	.p2align	2
__Z14findmax_strtodRNSt3__16vectorINS_12basic_stringIcNS_11char_traitsIcEENS_9allocatorIcEEEENS4_IS6_EEEE: ; @_Z14findmax_strtodRNSt3__16vectorINS_12basic_stringIcNS_11char_traitsIcEENS_9allocatorIcEEEENS4_IS6_EEEE
Lfunc_begin1:
	.cfi_startproc
	.cfi_personality 155, ___gxx_personality_v0
	.cfi_lsda 16, Lexception1
; %bb.0:
	sub	sp, sp, #96                     ; =96
	stp	d9, d8, [sp, #16]               ; 16-byte Folded Spill
	stp	x24, x23, [sp, #32]             ; 16-byte Folded Spill
	stp	x22, x21, [sp, #48]             ; 16-byte Folded Spill
	stp	x20, x19, [sp, #64]             ; 16-byte Folded Spill
	stp	x29, x30, [sp, #80]             ; 16-byte Folded Spill
	add	x29, sp, #80                    ; =80
	.cfi_def_cfa w29, 16
	.cfi_offset w30, -8
	.cfi_offset w29, -16
	.cfi_offset w19, -24
	.cfi_offset w20, -32
	.cfi_offset w21, -40
	.cfi_offset w22, -48
	.cfi_offset w23, -56
	.cfi_offset w24, -64
	.cfi_offset b8, -72
	.cfi_offset b9, -80
	ldp	x21, x22, [x0]
	movi.2d	v8, #0000000000000000
	cmp	x21, x22
	b.eq	LBB2_14
; %bb.1:
Lloh36:
	adrp	x19, __ZGVZ14findmax_strtodRNSt3__16vectorINS_12basic_stringIcNS_11char_traitsIcEENS_9allocatorIcEEEENS4_IS6_EEEEE8c_locale@PAGE
Lloh37:
	add	x19, x19, __ZGVZ14findmax_strtodRNSt3__16vectorINS_12basic_stringIcNS_11char_traitsIcEENS_9allocatorIcEEEENS4_IS6_EEEEE8c_locale@PAGEOFF
	adrp	x23, __ZZ14findmax_strtodRNSt3__16vectorINS_12basic_stringIcNS_11char_traitsIcEENS_9allocatorIcEEEENS4_IS6_EEEEE8c_locale@PAGE
Lloh38:
	adrp	x20, l_.str.10@PAGE
Lloh39:
	add	x20, x20, l_.str.10@PAGEOFF
LBB2_2:                                 ; =>This Inner Loop Header: Depth=1
	ldrsb	w9, [x21, #23]
	mov	x8, x21
	tbz	w9, #31, LBB2_4
; %bb.3:                                ;   in Loop: Header=BB2_2 Depth=1
	ldr	x8, [x21]
LBB2_4:                                 ;   in Loop: Header=BB2_2 Depth=1
	str	x8, [sp, #8]
	ldaprb	w8, [x19]
	tbz	w8, #0, LBB2_11
LBB2_5:                                 ;   in Loop: Header=BB2_2 Depth=1
	ldrsb	w8, [x21, #23]
	mov	x0, x21
	tbz	w8, #31, LBB2_7
; %bb.6:                                ;   in Loop: Header=BB2_2 Depth=1
	ldr	x0, [x21]
LBB2_7:                                 ;   in Loop: Header=BB2_2 Depth=1
	ldr	x2, [x23, __ZZ14findmax_strtodRNSt3__16vectorINS_12basic_stringIcNS_11char_traitsIcEENS_9allocatorIcEEEENS4_IS6_EEEEE8c_locale@PAGEOFF]
	add	x1, sp, #8                      ; =8
	bl	_strtod_l
	ldr	x8, [sp, #8]
	ldrsb	w10, [x21, #23]
	mov	x9, x21
	tbz	w10, #31, LBB2_9
; %bb.8:                                ;   in Loop: Header=BB2_2 Depth=1
	ldr	x9, [x21]
LBB2_9:                                 ;   in Loop: Header=BB2_2 Depth=1
	cmp	x8, x9
	b.eq	LBB2_15
; %bb.10:                               ;   in Loop: Header=BB2_2 Depth=1
	fcmp	d8, d0
	fcsel	d8, d8, d0, gt
	add	x21, x21, #24                   ; =24
	cmp	x22, x21
	b.ne	LBB2_2
	b	LBB2_14
LBB2_11:                                ;   in Loop: Header=BB2_2 Depth=1
	mov	x0, x19
	bl	___cxa_guard_acquire
	cbz	w0, LBB2_5
; %bb.12:                               ;   in Loop: Header=BB2_2 Depth=1
Ltmp64:
	mov	w0, #63
	mov	x1, x20
	mov	x2, #0
	bl	_newlocale
Ltmp65:
; %bb.13:                               ;   in Loop: Header=BB2_2 Depth=1
	str	x0, [x23, __ZZ14findmax_strtodRNSt3__16vectorINS_12basic_stringIcNS_11char_traitsIcEENS_9allocatorIcEEEENS4_IS6_EEEEE8c_locale@PAGEOFF]
	mov	x0, x19
	bl	___cxa_guard_release
	b	LBB2_5
LBB2_14:
	mov.16b	v0, v8
	ldp	x29, x30, [sp, #80]             ; 16-byte Folded Reload
	ldp	x20, x19, [sp, #64]             ; 16-byte Folded Reload
	ldp	x22, x21, [sp, #48]             ; 16-byte Folded Reload
	ldp	x24, x23, [sp, #32]             ; 16-byte Folded Reload
	ldp	d9, d8, [sp, #16]               ; 16-byte Folded Reload
	add	sp, sp, #96                     ; =96
	ret
LBB2_15:
	mov	w0, #16
	bl	___cxa_allocate_exception
	mov	x19, x0
Ltmp67:
Lloh40:
	adrp	x1, l_.str.11@PAGE
Lloh41:
	add	x1, x1, l_.str.11@PAGEOFF
	bl	__ZNSt13runtime_errorC1EPKc
Ltmp68:
; %bb.16:
Lloh42:
	adrp	x1, __ZTISt13runtime_error@GOTPAGE
Lloh43:
	ldr	x1, [x1, __ZTISt13runtime_error@GOTPAGEOFF]
Lloh44:
	adrp	x2, __ZNSt13runtime_errorD1Ev@GOTPAGE
Lloh45:
	ldr	x2, [x2, __ZNSt13runtime_errorD1Ev@GOTPAGEOFF]
	mov	x0, x19
	bl	___cxa_throw
LBB2_17:
Ltmp69:
	mov	x20, x0
	mov	x0, x19
	bl	___cxa_free_exception
	b	LBB2_19
LBB2_18:
Ltmp66:
	mov	x20, x0
Lloh46:
	adrp	x0, __ZGVZ14findmax_strtodRNSt3__16vectorINS_12basic_stringIcNS_11char_traitsIcEENS_9allocatorIcEEEENS4_IS6_EEEEE8c_locale@PAGE
Lloh47:
	add	x0, x0, __ZGVZ14findmax_strtodRNSt3__16vectorINS_12basic_stringIcNS_11char_traitsIcEENS_9allocatorIcEEEENS4_IS6_EEEEE8c_locale@PAGEOFF
	bl	___cxa_guard_abort
LBB2_19:
	mov	x0, x20
	bl	__Unwind_Resume
	brk	#0x1
	.loh AdrpAdd	Lloh38, Lloh39
	.loh AdrpAdd	Lloh36, Lloh37
	.loh AdrpAdd	Lloh40, Lloh41
	.loh AdrpLdrGot	Lloh44, Lloh45
	.loh AdrpLdrGot	Lloh42, Lloh43
	.loh AdrpAdd	Lloh46, Lloh47
Lfunc_end1:
	.cfi_endproc
	.section	__TEXT,__gcc_except_tab
	.p2align	2
GCC_except_table2:
Lexception1:
	.byte	255                             ; @LPStart Encoding = omit
	.byte	255                             ; @TType Encoding = omit
	.byte	1                               ; Call site Encoding = uleb128
	.uleb128 Lcst_end1-Lcst_begin1
Lcst_begin1:
	.uleb128 Lfunc_begin1-Lfunc_begin1      ; >> Call Site 1 <<
	.uleb128 Ltmp64-Lfunc_begin1            ;   Call between Lfunc_begin1 and Ltmp64
	.byte	0                               ;     has no landing pad
	.byte	0                               ;   On action: cleanup
	.uleb128 Ltmp64-Lfunc_begin1            ; >> Call Site 2 <<
	.uleb128 Ltmp65-Ltmp64                  ;   Call between Ltmp64 and Ltmp65
	.uleb128 Ltmp66-Lfunc_begin1            ;     jumps to Ltmp66
	.byte	0                               ;   On action: cleanup
	.uleb128 Ltmp65-Lfunc_begin1            ; >> Call Site 3 <<
	.uleb128 Ltmp67-Ltmp65                  ;   Call between Ltmp65 and Ltmp67
	.byte	0                               ;     has no landing pad
	.byte	0                               ;   On action: cleanup
	.uleb128 Ltmp67-Lfunc_begin1            ; >> Call Site 4 <<
	.uleb128 Ltmp68-Ltmp67                  ;   Call between Ltmp67 and Ltmp68
	.uleb128 Ltmp69-Lfunc_begin1            ;     jumps to Ltmp69
	.byte	0                               ;   On action: cleanup
	.uleb128 Ltmp68-Lfunc_begin1            ; >> Call Site 5 <<
	.uleb128 Lfunc_end1-Ltmp68              ;   Call between Ltmp68 and Lfunc_end1
	.byte	0                               ;     has no landing pad
	.byte	0                               ;   On action: cleanup
Lcst_end1:
	.p2align	2
                                        ; -- End function
	.section	__TEXT,__text,regular,pure_instructions
	.globl	__Z17findmax_fastfloatRNSt3__16vectorINS_12basic_stringIcNS_11char_traitsIcEENS_9allocatorIcEEEENS4_IS6_EEEE ; -- Begin function _Z17findmax_fastfloatRNSt3__16vectorINS_12basic_stringIcNS_11char_traitsIcEENS_9allocatorIcEEEENS4_IS6_EEEE
	.p2align	2
__Z17findmax_fastfloatRNSt3__16vectorINS_12basic_stringIcNS_11char_traitsIcEENS_9allocatorIcEEEENS4_IS6_EEEE: ; @_Z17findmax_fastfloatRNSt3__16vectorINS_12basic_stringIcNS_11char_traitsIcEENS_9allocatorIcEEEENS4_IS6_EEEE
Lfunc_begin2:
	.cfi_startproc
	.cfi_personality 155, ___gxx_personality_v0
	.cfi_lsda 16, Lexception2
; %bb.0:
	sub	sp, sp, #64                     ; =64
	stp	d9, d8, [sp, #16]               ; 16-byte Folded Spill
	stp	x20, x19, [sp, #32]             ; 16-byte Folded Spill
	stp	x29, x30, [sp, #48]             ; 16-byte Folded Spill
	add	x29, sp, #48                    ; =48
	.cfi_def_cfa w29, 16
	.cfi_offset w30, -8
	.cfi_offset w29, -16
	.cfi_offset w19, -24
	.cfi_offset w20, -32
	.cfi_offset b8, -40
	.cfi_offset b9, -48
	str	xzr, [sp, #8]
	ldp	x19, x20, [x0]
	movi.2d	v8, #0000000000000000
	cmp	x19, x20
	b.eq	LBB3_8
LBB3_1:                                 ; =>This Inner Loop Header: Depth=1
	ldrsb	w8, [x19, #23]
	tbnz	w8, #31, LBB3_3
; %bb.2:                                ;   in Loop: Header=BB3_1 Depth=1
	and	x8, x8, #0xff
	mov	x0, x19
	b	LBB3_4
LBB3_3:                                 ;   in Loop: Header=BB3_1 Depth=1
	ldp	x0, x8, [x19]
LBB3_4:                                 ;   in Loop: Header=BB3_1 Depth=1
	add	x1, x0, x8
	add	x2, sp, #8                      ; =8
	mov	w3, #5
	bl	__ZN10fast_float10from_charsIdEENS_17from_chars_resultEPKcS3_RT_NS_12chars_formatE
	ldrsb	w9, [x19, #23]
	mov	x8, x19
	tbz	w9, #31, LBB3_6
; %bb.5:                                ;   in Loop: Header=BB3_1 Depth=1
	ldr	x8, [x19]
LBB3_6:                                 ;   in Loop: Header=BB3_1 Depth=1
	cmp	x8, x0
	b.eq	LBB3_9
; %bb.7:                                ;   in Loop: Header=BB3_1 Depth=1
	ldr	d0, [sp, #8]
	fcmp	d8, d0
	fcsel	d8, d8, d0, gt
	add	x19, x19, #24                   ; =24
	cmp	x20, x19
	b.ne	LBB3_1
LBB3_8:
	mov.16b	v0, v8
	ldp	x29, x30, [sp, #48]             ; 16-byte Folded Reload
	ldp	x20, x19, [sp, #32]             ; 16-byte Folded Reload
	ldp	d9, d8, [sp, #16]               ; 16-byte Folded Reload
	add	sp, sp, #64                     ; =64
	ret
LBB3_9:
	mov	w0, #16
	bl	___cxa_allocate_exception
	mov	x19, x0
Ltmp70:
Lloh48:
	adrp	x1, l_.str.12@PAGE
Lloh49:
	add	x1, x1, l_.str.12@PAGEOFF
	bl	__ZNSt13runtime_errorC1EPKc
Ltmp71:
; %bb.10:
Lloh50:
	adrp	x1, __ZTISt13runtime_error@GOTPAGE
Lloh51:
	ldr	x1, [x1, __ZTISt13runtime_error@GOTPAGEOFF]
Lloh52:
	adrp	x2, __ZNSt13runtime_errorD1Ev@GOTPAGE
Lloh53:
	ldr	x2, [x2, __ZNSt13runtime_errorD1Ev@GOTPAGEOFF]
	mov	x0, x19
	bl	___cxa_throw
LBB3_11:
Ltmp72:
	mov	x20, x0
	mov	x0, x19
	bl	___cxa_free_exception
	mov	x0, x20
	bl	__Unwind_Resume
	brk	#0x1
	.loh AdrpAdd	Lloh48, Lloh49
	.loh AdrpLdrGot	Lloh52, Lloh53
	.loh AdrpLdrGot	Lloh50, Lloh51
Lfunc_end2:
	.cfi_endproc
	.section	__TEXT,__gcc_except_tab
	.p2align	2
GCC_except_table3:
Lexception2:
	.byte	255                             ; @LPStart Encoding = omit
	.byte	255                             ; @TType Encoding = omit
	.byte	1                               ; Call site Encoding = uleb128
	.uleb128 Lcst_end2-Lcst_begin2
Lcst_begin2:
	.uleb128 Lfunc_begin2-Lfunc_begin2      ; >> Call Site 1 <<
	.uleb128 Ltmp70-Lfunc_begin2            ;   Call between Lfunc_begin2 and Ltmp70
	.byte	0                               ;     has no landing pad
	.byte	0                               ;   On action: cleanup
	.uleb128 Ltmp70-Lfunc_begin2            ; >> Call Site 2 <<
	.uleb128 Ltmp71-Ltmp70                  ;   Call between Ltmp70 and Ltmp71
	.uleb128 Ltmp72-Lfunc_begin2            ;     jumps to Ltmp72
	.byte	0                               ;   On action: cleanup
	.uleb128 Ltmp71-Lfunc_begin2            ; >> Call Site 3 <<
	.uleb128 Lfunc_end2-Ltmp71              ;   Call between Ltmp71 and Lfunc_end2
	.byte	0                               ;     has no landing pad
	.byte	0                               ;   On action: cleanup
Lcst_end2:
	.p2align	2
                                        ; -- End function
	.section	__TEXT,__text,regular,pure_instructions
	.globl	__ZN10fast_float10from_charsIdEENS_17from_chars_resultEPKcS3_RT_NS_12chars_formatE ; -- Begin function _ZN10fast_float10from_charsIdEENS_17from_chars_resultEPKcS3_RT_NS_12chars_formatE
	.weak_def_can_be_hidden	__ZN10fast_float10from_charsIdEENS_17from_chars_resultEPKcS3_RT_NS_12chars_formatE
	.p2align	2
__ZN10fast_float10from_charsIdEENS_17from_chars_resultEPKcS3_RT_NS_12chars_formatE: ; @_ZN10fast_float10from_charsIdEENS_17from_chars_resultEPKcS3_RT_NS_12chars_formatE
Lfunc_begin3:
	.cfi_startproc
	.cfi_personality 155, ___gxx_personality_v0
	.cfi_lsda 16, Lexception3
; %bb.0:
	stp	x22, x21, [sp, #-48]!           ; 16-byte Folded Spill
	stp	x20, x19, [sp, #16]             ; 16-byte Folded Spill
	stp	x29, x30, [sp, #32]             ; 16-byte Folded Spill
	add	x29, sp, #32                    ; =32
	.cfi_def_cfa w29, 16
	.cfi_offset w30, -8
	.cfi_offset w29, -16
	.cfi_offset w19, -24
	.cfi_offset w20, -32
	.cfi_offset w21, -40
	.cfi_offset w22, -48
	cmp	x0, x1
	b.eq	LBB4_40
; %bb.1:
	mov	x19, x2
	ldrb	w21, [x0]
	mov	x11, x21
	mov	x8, x0
	cmp	w21, #45                        ; =45
	b.ne	LBB4_4
; %bb.2:
	add	x8, x0, #1                      ; =1
	cmp	x8, x1
	b.eq	LBB4_37
; %bb.3:
	ldrb	w11, [x8]
	sub	w9, w11, #48                    ; =48
	cmp	w11, #46                        ; =46
	and	w9, w9, #0xff
	ccmp	w9, #9, #0, ne
	b.hi	LBB4_37
LBB4_4:
	cmp	x8, x1
	b.eq	LBB4_9
; %bb.5:
	sub	w9, w11, #48                    ; =48
	cmp	w9, #9                          ; =9
	b.hi	LBB4_11
; %bb.6:
	mov	x9, #0
	sub	x10, x1, #1                     ; =1
	mov	w12, #10
	mov	x14, x8
	mov	x13, x11
LBB4_7:                                 ; =>This Inner Loop Header: Depth=1
	mul	x9, x9, x12
	add	x9, x9, w13, uxtb
	sub	x9, x9, #48                     ; =48
	cmp	x10, x14
	b.eq	LBB4_10
; %bb.8:                                ;   in Loop: Header=BB4_7 Depth=1
	add	x20, x14, #1                    ; =1
	ldrb	w13, [x14, #1]
	sub	w15, w13, #48                   ; =48
	mov	x14, x20
	cmp	w15, #10                        ; =10
	b.lo	LBB4_7
	b	LBB4_12
LBB4_9:
	mov	x9, #0
LBB4_10:
	mov	x10, #0
	sub	x12, x1, x8
	mov	x13, x1
	mov	x20, x1
	cbnz	x12, LBB4_23
	b	LBB4_37
LBB4_11:
	mov	x9, #0
	mov	x13, x11
	mov	x20, x8
LBB4_12:
	sub	x12, x20, x8
	cmp	w13, #46                        ; =46
	b.ne	LBB4_22
; %bb.13:
	add	x10, x20, #1                    ; =1
	add	x14, x20, #9                    ; =9
	cmp	x14, x1
	b.hi	LBB4_15
; %bb.14:
	mov	x16, #-3472328296227680305
	movk	x16, #53200
	mov	x17, #17990
	movk	x17, #17990, lsl #16
	movk	x17, #17990, lsl #32
	movk	x17, #17990, lsl #48
	ldr	x13, [x10]
	add	x15, x13, x17
	add	x4, x13, x16
	orr	x13, x15, x4
	tst	x13, #0x8080808080808080
	b.eq	LBB4_55
LBB4_15:
	mov	x14, x10
LBB4_16:
	cmp	x14, x1
	b.eq	LBB4_20
; %bb.17:
	mov	w13, #10
LBB4_18:                                ; =>This Inner Loop Header: Depth=1
	ldrb	w15, [x14]
	sub	w15, w15, #48                   ; =48
	cmp	w15, #9                         ; =9
	b.hi	LBB4_21
; %bb.19:                               ;   in Loop: Header=BB4_18 Depth=1
	add	x14, x14, #1                    ; =1
	mul	x9, x9, x13
	add	x9, x9, w15, uxtb
	cmp	x1, x14
	b.ne	LBB4_18
LBB4_20:
	mov	x14, x1
LBB4_21:
	sub	x10, x10, x14
	sub	x12, x12, x10
	mov	x13, x20
	mov	x20, x14
	cbnz	x12, LBB4_23
	b	LBB4_37
LBB4_22:
	mov	x10, #0
	mov	x13, x20
	cbz	x12, LBB4_37
LBB4_23:
	tbz	w3, #0, LBB4_33
; %bb.24:
	cmp	x20, x1
	b.eq	LBB4_33
; %bb.25:
	ldrb	w14, [x20]
	orr	w14, w14, #0x20
	cmp	w14, #101                       ; =101
	b.ne	LBB4_33
; %bb.26:
	add	x15, x20, #1                    ; =1
	cmp	x15, x1
	b.eq	LBB4_36
; %bb.27:
	ldrb	w14, [x20, #1]
	cmp	w14, #43                        ; =43
	mov	w16, #45
	ccmp	w14, w16, #4, ne
	add	x16, x20, #2                    ; =2
	csel	x16, x16, x15, eq
	cmp	x16, x1
	b.eq	LBB4_36
; %bb.28:
	ldrb	w15, [x16]
	sub	w17, w15, #48                   ; =48
	cmp	w17, #9                         ; =9
	b.hi	LBB4_36
; %bb.29:
	mov	x15, #0
	add	x16, x16, #1                    ; =1
	mov	w2, #10
LBB4_30:                                ; =>This Inner Loop Header: Depth=1
	mul	x3, x15, x2
	add	x17, x3, w17, uxtb
	cmp	x15, #16, lsl #12               ; =65536
	csel	x15, x17, x15, lt
	cmp	x1, x16
	b.eq	LBB4_59
; %bb.31:                               ;   in Loop: Header=BB4_30 Depth=1
	ldrb	w17, [x16], #1
	sub	w17, w17, #48                   ; =48
	cmp	w17, #10                        ; =10
	b.lo	LBB4_30
; %bb.32:
	sub	x20, x16, #1                    ; =1
	b	LBB4_60
LBB4_33:
	mov	x14, #0
	tbnz	w3, #2, LBB4_35
; %bb.34:
	tbnz	w3, #0, LBB4_37
LBB4_35:
	cmp	x12, #20                        ; =20
	b.lt	LBB4_73
	b	LBB4_61
LBB4_36:
	tbnz	w3, #2, LBB4_54
LBB4_37:
	cmp	w21, #45                        ; =45
	cset	w10, eq
	cinc	x8, x0, eq
	sub	x9, x1, x8
	cmp	x9, #3                          ; =3
	b.lt	LBB4_40
; %bb.38:
	ldrb	w10, [x0, x10]
	mov	w11, #78
	eor	w13, w10, w11
	ldrb	w12, [x8, #1]
	mov	w14, #65
	eor	w14, w12, w14
	orr	w14, w14, w13
	ldrb	w13, [x8, #2]
	eor	w15, w13, w11
	orr	w14, w14, w15
	tst	w14, #0xffffffdf
	b.eq	LBB4_42
; %bb.39:
	mov	w14, #73
	eor	w10, w10, w14
	eor	w11, w12, w11
	orr	w10, w11, w10
	mov	w11, #70
	eor	w11, w13, w11
	orr	w10, w10, w11
	tst	w10, #0xffffffdf
	b.eq	LBB4_50
LBB4_40:
	mov	w9, #22
	mov	x20, x0
LBB4_41:
	mov	x0, x20
	mov	x1, x9
	ldp	x29, x30, [sp, #32]             ; 16-byte Folded Reload
	ldp	x20, x19, [sp, #16]             ; 16-byte Folded Reload
	ldp	x22, x21, [sp], #48             ; 16-byte Folded Reload
	ret
LBB4_42:
	add	x20, x8, #3                     ; =3
	cmp	w21, #45                        ; =45
	mov	x9, #9221120237041090560
	fmov	d0, x9
	mov	x9, #-2251799813685248
	fmov	d1, x9
	fcsel	d0, d1, d0, eq
	str	d0, [x19]
	cmp	x20, x1
	b.eq	LBB4_49
; %bb.43:
	ldrb	w9, [x20]
	cmp	w9, #40                         ; =40
	b.ne	LBB4_49
; %bb.44:
	add	x8, x8, #4                      ; =4
	cmp	x8, x1
	b.ne	LBB4_46
	b	LBB4_49
LBB4_45:                                ;   in Loop: Header=BB4_46 Depth=1
	mov	x9, #0
	add	x8, x8, #1                      ; =1
	cmp	x1, x8
	b.eq	LBB4_41
LBB4_46:                                ; =>This Inner Loop Header: Depth=1
	ldrb	w9, [x8]
	cmp	w9, #41                         ; =41
	b.eq	LBB4_82
; %bb.47:                               ;   in Loop: Header=BB4_46 Depth=1
	and	w10, w9, #0xffffffdf
	sub	w10, w10, #65                   ; =65
	and	w10, w10, #0xff
	cmp	w10, #26                        ; =26
	b.lo	LBB4_45
; %bb.48:                               ;   in Loop: Header=BB4_46 Depth=1
	sub	w10, w9, #48                    ; =48
	cmp	w9, #95                         ; =95
	and	w9, w10, #0xff
	ccmp	w9, #9, #0, ne
	b.ls	LBB4_45
LBB4_49:
	mov	x9, #0
	b	LBB4_41
LBB4_50:
	cmp	x9, #8                          ; =8
	b.lt	LBB4_52
; %bb.51:
	ldrb	w9, [x8, #3]
	mov	w10, #73
	eor	w9, w9, w10
	ldrb	w11, [x8, #4]
	mov	w12, #78
	eor	w11, w11, w12
	orr	w9, w11, w9
	ldrb	w11, [x8, #5]
	eor	w10, w11, w10
	orr	w9, w9, w10
	ldrb	w10, [x8, #6]
	mov	w11, #84
	eor	w10, w10, w11
	orr	w9, w9, w10
	ldrb	w10, [x8, #7]
	mov	w11, #89
	eor	w10, w10, w11
	orr	w9, w9, w10
	mov	w10, #223
	tst	w9, w10
	b.eq	LBB4_58
LBB4_52:
	mov	w10, #3
LBB4_53:
	mov	x9, #0
	add	x20, x8, x10
	cmp	w21, #45                        ; =45
	mov	x8, #9218868437227405312
	fmov	d0, x8
	mov	x8, #-4503599627370496
	fmov	d1, x8
	b	LBB4_80
LBB4_54:
	mov	x14, #0
	cmp	x12, #20                        ; =20
	b.lt	LBB4_73
	b	LBB4_61
LBB4_55:
	mov	x15, #100
	movk	x15, #16960, lsl #32
	movk	x15, #15, lsl #48
	mov	x13, #1
	movk	x13, #10000, lsl #32
	mov	w2, #57600
	movk	w2, #1525, lsl #16
	mul	x9, x9, x2
	mov	w5, #10
	mul	x5, x4, x5
	add	x4, x5, x4, lsr #8
	and	x5, x4, #0xff000000ff
	mul	x5, x5, x15
	lsr	x4, x4, #16
	and	x4, x4, #0xff000000ff
	madd	x4, x4, x13, x5
	add	x9, x9, x4, lsr #32
	add	x4, x20, #17                    ; =17
	cmp	x4, x1
	b.hi	LBB4_16
; %bb.56:
	ldr	x5, [x14]
	add	x17, x5, x17
	add	x16, x5, x16
	orr	x17, x17, x16
	tst	x17, #0x8080808080808080
	b.ne	LBB4_16
; %bb.57:
	mul	x9, x9, x2
	mov	w14, #10
	mul	x14, x16, x14
	add	x14, x14, x16, lsr #8
	and	x16, x14, #0xff000000ff
	mul	x15, x16, x15
	lsr	x14, x14, #16
	and	x14, x14, #0xff000000ff
	madd	x13, x14, x13, x15
	add	x9, x9, x13, lsr #32
	mov	x14, x4
	b	LBB4_16
LBB4_58:
	mov	w10, #8
	b	LBB4_53
LBB4_59:
	mov	x20, x1
LBB4_60:
	cmp	w14, #45                        ; =45
	cneg	x14, x15, eq
	add	x10, x14, x10
	cmp	x12, #20                        ; =20
	b.lt	LBB4_73
LBB4_61:
	cmp	x8, x1
	b.eq	LBB4_77
; %bb.62:
	add	x15, x8, #1                     ; =1
	mov	x16, x11
LBB4_63:                                ; =>This Inner Loop Header: Depth=1
	and	w16, w16, #0xff
	cmp	w16, #48                        ; =48
	b.eq	LBB4_65
; %bb.64:                               ;   in Loop: Header=BB4_63 Depth=1
	cmp	w16, #46                        ; =46
	b.ne	LBB4_67
LBB4_65:                                ;   in Loop: Header=BB4_63 Depth=1
	cmp	w16, #48                        ; =48
	cset	w16, eq
	sub	x12, x12, x16
	cmp	x1, x15
	b.eq	LBB4_67
; %bb.66:                               ;   in Loop: Header=BB4_63 Depth=1
	ldrb	w16, [x15], #1
	b	LBB4_63
LBB4_67:
	cmp	x12, #20                        ; =20
	b.lt	LBB4_73
; %bb.68:
	sub	w9, w11, #48                    ; =48
	cmp	w9, #9                          ; =9
	b.hi	LBB4_81
; %bb.69:
	mov	x9, #0
	mov	x10, #-1486618625
	movk	x10, #46771, lsl #32
	movk	x10, #3552, lsl #48
	add	x15, x8, #1                     ; =1
	mov	w12, #10
LBB4_70:                                ; =>This Inner Loop Header: Depth=1
	mov	x8, x15
	mul	x9, x9, x12
	add	x9, x9, w11, uxtb
	sub	x9, x9, #48                     ; =48
	cmp	x1, x15
	b.eq	LBB4_83
; %bb.71:                               ;   in Loop: Header=BB4_70 Depth=1
	cmp	x9, x10
	b.hi	LBB4_83
; %bb.72:                               ;   in Loop: Header=BB4_70 Depth=1
	mov	x15, x8
	ldrb	w11, [x15], #1
	sub	w16, w11, #48                   ; =48
	cmp	w16, #10                        ; =10
	b.lo	LBB4_70
	b	LBB4_84
LBB4_73:
	mov	w11, #1
	mov	x8, #9007199254740992
	cmp	x9, x8
	b.hi	LBB4_93
; %bb.74:
	add	x8, x10, #22                    ; =22
	cmp	x8, #44                         ; =44
	b.hi	LBB4_93
; %bb.75:
	ucvtf	d0, x9
	str	d0, [x19]
Lloh54:
	adrp	x8, __ZN10fast_floatL20powers_of_ten_doubleE@PAGE
Lloh55:
	add	x8, x8, __ZN10fast_floatL20powers_of_ten_doubleE@PAGEOFF
	tbnz	x10, #63, LBB4_78
; %bb.76:
	ldr	d1, [x8, x10, lsl #3]
	fmul	d0, d1, d0
	b	LBB4_79
LBB4_77:
	mov	x9, #0
	mov	x8, x1
	b	LBB4_84
LBB4_78:
	sub	x8, x8, x10, lsl #3
	ldr	d1, [x8]
	fdiv	d0, d0, d1
LBB4_79:
	mov	x9, #0
	fneg	d1, d0
	cmp	w21, #45                        ; =45
LBB4_80:
	fcsel	d0, d1, d0, eq
	str	d0, [x19]
	b	LBB4_41
LBB4_81:
	mov	x9, #0
	b	LBB4_84
LBB4_82:
	mov	x9, #0
	add	x20, x8, #1                     ; =1
	b	LBB4_41
LBB4_83:
	cmp	x9, x10
	b.hi	LBB4_92
LBB4_84:
	add	x13, x8, #1                     ; =1
	cmp	x13, x1
	b.eq	LBB4_90
; %bb.85:
	mov	x10, #-1486618625
	movk	x10, #46771, lsl #32
	movk	x10, #3552, lsl #48
	add	x11, x8, #2                     ; =2
	mov	w8, #10
LBB4_86:                                ; =>This Inner Loop Header: Depth=1
	ldurb	w12, [x11, #-1]
	sub	w15, w12, #48                   ; =48
	and	w15, w15, #0xff
	cmp	w15, #9                         ; =9
	b.hi	LBB4_91
; %bb.87:                               ;   in Loop: Header=BB4_86 Depth=1
	madd	x9, x9, x8, x12
	sub	x9, x9, #48                     ; =48
	add	x12, x11, #1                    ; =1
	cmp	x1, x11
	b.eq	LBB4_89
; %bb.88:                               ;   in Loop: Header=BB4_86 Depth=1
	mov	x11, x12
	cmp	x9, x10
	b.ls	LBB4_86
LBB4_89:
	sub	x8, x12, #1                     ; =1
	b	LBB4_92
LBB4_90:
	mov	x8, x1
	b	LBB4_92
LBB4_91:
	sub	x8, x11, #1                     ; =1
LBB4_92:
	mov	w11, #0
	sub	x8, x13, x8
	add	x10, x8, x14
LBB4_93:
	mov	x8, #0
	mov	w12, #0
	cbz	x9, LBB4_107
; %bb.94:
	cmn	x10, #342                       ; =342
	b.lt	LBB4_107
; %bb.95:
	cmp	x10, #308                       ; =308
	b.le	LBB4_97
; %bb.96:
	mov	x8, #0
	mov	w12, #2047
	b	LBB4_107
LBB4_97:
	clz	x13, x9
	lsl	x14, x9, x13
	lsl	w15, w10, #1
	add	w8, w15, #684                   ; =684
Lloh56:
	adrp	x16, __ZN10fast_floatL17power_of_five_128E@PAGE
Lloh57:
	add	x16, x16, __ZN10fast_floatL17power_of_five_128E@PAGEOFF
	ldr	x8, [x16, w8, sxtw #3]
	mul	x12, x8, x14
	umulh	x8, x8, x14
	mvn	w17, w8
	tst	x17, #0x1ff
	b.ne	LBB4_99
; %bb.98:
	add	w15, w15, #685                  ; =685
	ldr	x15, [x16, w15, sxtw #3]
	umulh	x14, x15, x14
	adds	x12, x14, x12
	cinc	x8, x8, hs
LBB4_99:
	add	x14, x10, #27                   ; =27
	cmp	x14, #83                        ; =83
	b.lo	LBB4_102
; %bb.100:
	cmn	x12, #1                         ; =1
	b.ne	LBB4_102
; %bb.101:
	mov	x8, #0
	b	LBB4_107
LBB4_102:
	lsr	x16, x8, #63
	add	x15, x16, #9                    ; =9
	lsr	x14, x8, x15
	mov	w17, #21098
	movk	w17, #3, lsl #16
	mul	w17, w10, w17
	eor	w13, w13, #0x3f
	add	w13, w13, w17, asr #16
	add	w13, w13, w16
	cmn	w13, #1023                      ; =1023
	b.gt	LBB4_105
; %bb.103:
	cmn	w13, #1085                      ; =1085
	b.ge	LBB4_106
; %bb.104:
	mov	w12, #0
	mov	x8, #0
	b	LBB4_107
LBB4_105:
	and	x16, x14, #0x3
	cmp	x16, #1                         ; =1
	ccmp	x12, #2, #2, eq
	add	x12, x10, #4                    ; =4
	ccmp	x12, #28, #2, lo
	lsl	x12, x14, x15
	ccmp	x12, x8, #0, lo
	and	x8, x14, #0xfffffffffffffe
	csel	x8, x8, x14, eq
	and	x12, x8, #0x1
	add	x8, x12, x8
	lsr	x14, x8, #54
	cmp	x14, #0                         ; =0
	mov	w12, #1023
	cinc	w12, w12, ne
	add	w12, w12, w13
	cmp	w12, #2047                      ; =2047
	mov	w13, #2047
	csel	w12, w12, w13, lt
	lsr	x8, x8, #1
	ccmp	x14, #0, #0, lt
	and	x8, x8, #0xffefffffffffffff
	csel	x8, x8, xzr, eq
	b	LBB4_107
LBB4_106:
	mov	w8, #-1022
	sub	w8, w8, w13
	lsr	x8, x14, x8
	and	x12, x8, #0x1
	add	x12, x12, x8
	lsr	x8, x12, #1
	lsr	x12, x12, #53
	cmp	x12, #0                         ; =0
	cset	w12, ne
LBB4_107:
	mov	w12, w12
	tbnz	w11, #0, LBB4_123
; %bb.108:
	mov	x11, #0
	mov	w13, #0
	adds	x9, x9, #1                      ; =1
	cset	w14, hs
	cmn	x10, #342                       ; =342
	b.lt	LBB4_122
; %bb.109:
	tbnz	w14, #0, LBB4_122
; %bb.110:
	cmp	x10, #308                       ; =308
	b.le	LBB4_112
; %bb.111:
	mov	x11, #0
	mov	w13, #2047
	b	LBB4_122
LBB4_112:
	clz	x13, x9
	lsl	x14, x9, x13
	lsl	w15, w10, #1
	add	w9, w15, #684                   ; =684
Lloh58:
	adrp	x16, __ZN10fast_floatL17power_of_five_128E@PAGE
Lloh59:
	add	x16, x16, __ZN10fast_floatL17power_of_five_128E@PAGEOFF
	ldr	x9, [x16, w9, sxtw #3]
	mul	x11, x9, x14
	umulh	x9, x9, x14
	mvn	w17, w9
	tst	x17, #0x1ff
	b.ne	LBB4_114
; %bb.113:
	add	w15, w15, #685                  ; =685
	ldr	x15, [x16, w15, sxtw #3]
	umulh	x14, x15, x14
	adds	x11, x14, x11
	cinc	x9, x9, hs
LBB4_114:
	add	x14, x10, #27                   ; =27
	cmp	x14, #83                        ; =83
	b.lo	LBB4_117
; %bb.115:
	cmn	x11, #1                         ; =1
	b.ne	LBB4_117
; %bb.116:
	mov	x11, #0
	mov	w13, #-1
	b	LBB4_122
LBB4_117:
	lsr	x16, x9, #63
	add	x15, x16, #9                    ; =9
	lsr	x14, x9, x15
	mov	w17, #21098
	movk	w17, #3, lsl #16
	mul	w17, w10, w17
	eor	w13, w13, #0x3f
	add	w13, w13, w17, asr #16
	add	w13, w13, w16
	cmn	w13, #1023                      ; =1023
	b.gt	LBB4_120
; %bb.118:
	cmn	w13, #1085                      ; =1085
	b.ge	LBB4_121
; %bb.119:
	mov	w13, #0
	mov	x11, #0
	b	LBB4_122
LBB4_120:
	and	x16, x14, #0x3
	cmp	x16, #1                         ; =1
	ccmp	x11, #2, #2, eq
	add	x10, x10, #4                    ; =4
	ccmp	x10, #28, #2, lo
	lsl	x10, x14, x15
	ccmp	x10, x9, #0, lo
	and	x9, x14, #0xfffffffffffffe
	csel	x9, x9, x14, eq
	and	x10, x9, #0x1
	add	x9, x10, x9
	lsr	x10, x9, #54
	cmp	x10, #0                         ; =0
	mov	w11, #1023
	cinc	w11, w11, ne
	add	w11, w11, w13
	cmp	w11, #2047                      ; =2047
	mov	w13, #2047
	csel	w13, w11, w13, lt
	lsr	x9, x9, #1
	ccmp	x10, #0, #0, lt
	and	x9, x9, #0xffefffffffffffff
	csel	x11, x9, xzr, eq
	b	LBB4_122
LBB4_121:
	mov	w9, #-1022
	sub	w9, w9, w13
	lsr	x9, x14, x9
	and	x10, x9, #0x1
	add	x9, x10, x9
	lsr	x11, x9, #1
	lsr	x9, x9, #53
	cmp	x9, #0                          ; =0
	cset	w13, ne
LBB4_122:
	cmp	x8, x11
	ccmp	w12, w13, #0, eq
	mov	w9, #-1
	csel	x12, x9, x12, ne
LBB4_123:
	tbz	w12, #31, LBB4_126
; %bb.124:
Ltmp73:
	bl	__ZN10fast_float19parse_long_mantissaINS_13binary_formatIdEEEENS_17adjusted_mantissaEPKcS5_
Ltmp74:
; %bb.125:
	mov	x8, x0
	and	x12, x1, #0xffffffff
LBB4_126:
	mov	x9, #0
	orr	x8, x8, x12, lsl #52
	orr	x10, x8, #0x8000000000000000
	cmp	w21, #45                        ; =45
	csel	x8, x10, x8, eq
	str	x8, [x19]
	b	LBB4_41
LBB4_127:
Ltmp75:
	bl	___clang_call_terminate
	.loh AdrpAdd	Lloh54, Lloh55
	.loh AdrpAdd	Lloh56, Lloh57
	.loh AdrpAdd	Lloh58, Lloh59
Lfunc_end3:
	.cfi_endproc
	.section	__TEXT,__gcc_except_tab
	.p2align	2
GCC_except_table4:
Lexception3:
	.byte	255                             ; @LPStart Encoding = omit
	.byte	155                             ; @TType Encoding = indirect pcrel sdata4
	.uleb128 Lttbase1-Lttbaseref1
Lttbaseref1:
	.byte	1                               ; Call site Encoding = uleb128
	.uleb128 Lcst_end3-Lcst_begin3
Lcst_begin3:
	.uleb128 Ltmp73-Lfunc_begin3            ; >> Call Site 1 <<
	.uleb128 Ltmp74-Ltmp73                  ;   Call between Ltmp73 and Ltmp74
	.uleb128 Ltmp75-Lfunc_begin3            ;     jumps to Ltmp75
	.byte	1                               ;   On action: 1
Lcst_end3:
	.byte	1                               ; >> Action Record 1 <<
                                        ;   Catch TypeInfo 1
	.byte	0                               ;   No further actions
	.p2align	2
                                        ; >> Catch TypeInfos <<
	.long	0                               ; TypeInfo 1
Lttbase1:
	.p2align	2
                                        ; -- End function
	.section	__TEXT,__text,regular,pure_instructions
	.globl	__Z12pretty_printdmNSt3__112basic_stringIcNS_11char_traitsIcEENS_9allocatorIcEEEENS_4pairI20performance_countersS7_EE ; -- Begin function _Z12pretty_printdmNSt3__112basic_stringIcNS_11char_traitsIcEENS_9allocatorIcEEEENS_4pairI20performance_countersS7_EE
	.p2align	2
__Z12pretty_printdmNSt3__112basic_stringIcNS_11char_traitsIcEENS_9allocatorIcEEEENS_4pairI20performance_countersS7_EE: ; @_Z12pretty_printdmNSt3__112basic_stringIcNS_11char_traitsIcEENS_9allocatorIcEEEENS_4pairI20performance_countersS7_EE
	.cfi_startproc
; %bb.0:
	sub	sp, sp, #80                     ; =80
	stp	d9, d8, [sp, #16]               ; 16-byte Folded Spill
	stp	x22, x21, [sp, #32]             ; 16-byte Folded Spill
	stp	x20, x19, [sp, #48]             ; 16-byte Folded Spill
	stp	x29, x30, [sp, #64]             ; 16-byte Folded Spill
	add	x29, sp, #64                    ; =64
	.cfi_def_cfa w29, 16
	.cfi_offset w30, -8
	.cfi_offset w29, -16
	.cfi_offset w19, -24
	.cfi_offset w20, -32
	.cfi_offset w21, -40
	.cfi_offset w22, -48
	.cfi_offset b8, -56
	.cfi_offset b9, -64
	mov	x19, x2
	ldrsb	w8, [x1, #23]
	tbz	w8, #31, LBB5_2
; %bb.1:
	ldr	x1, [x1]
LBB5_2:
	str	x1, [sp]
Lloh60:
	adrp	x20, l_.str.13@PAGE
Lloh61:
	add	x20, x20, l_.str.13@PAGEOFF
	mov	x0, x20
	bl	_printf
	ldr	d0, [x19, #24]
	ldr	d1, [x19, #56]
	fsub	d1, d1, d0
	mov	x8, #4636737291354636288
	fmov	d8, x8
	fmul	d1, d1, d8
	fdiv	d1, d1, d0
	stp	d0, d1, [sp]
Lloh62:
	adrp	x0, l_.str.14@PAGE
Lloh63:
	add	x0, x0, l_.str.14@PAGEOFF
	bl	_printf
	mov	w0, #10
	bl	_putchar
Lloh64:
	adrp	x21, l_.str.16@PAGE
Lloh65:
	add	x21, x21, l_.str.16@PAGEOFF
	str	x21, [sp]
	mov	x0, x20
	bl	_printf
	ldr	d0, [x19]
	ldr	d1, [x19, #32]
	fsub	d1, d1, d0
	fmul	d1, d1, d8
	fdiv	d1, d1, d0
	stp	d0, d1, [sp]
Lloh66:
	adrp	x0, l_.str.17@PAGE
Lloh67:
	add	x0, x0, l_.str.17@PAGEOFF
	bl	_printf
	mov	w0, #10
	bl	_putchar
	str	x21, [sp]
	mov	x0, x20
	bl	_printf
	ldr	d0, [x19, #24]
	ldr	d1, [x19]
	fdiv	d0, d0, d1
	str	d0, [sp]
Lloh68:
	adrp	x0, l_.str.18@PAGE
Lloh69:
	add	x0, x0, l_.str.18@PAGEOFF
	bl	_printf
	mov	w0, #10
	bl	_putchar
	str	x21, [sp]
	mov	x0, x20
	bl	_printf
	ldr	d0, [x19, #8]
	ldr	d1, [x19, #40]
	fsub	d1, d1, d0
	fmul	d1, d1, d8
	fdiv	d1, d1, d0
	stp	d0, d1, [sp]
Lloh70:
	adrp	x0, l_.str.19@PAGE
Lloh71:
	add	x0, x0, l_.str.19@PAGEOFF
	bl	_printf
	mov	w0, #10
	bl	_putchar
	str	x21, [sp]
	mov	x0, x20
	bl	_printf
	ldr	d0, [x19, #48]
	str	d0, [sp]
Lloh72:
	adrp	x0, l_.str.20@PAGE
Lloh73:
	add	x0, x0, l_.str.20@PAGEOFF
	bl	_printf
	mov	w0, #10
	ldp	x29, x30, [sp, #64]             ; 16-byte Folded Reload
	ldp	x20, x19, [sp, #48]             ; 16-byte Folded Reload
	ldp	x22, x21, [sp, #32]             ; 16-byte Folded Reload
	ldp	d9, d8, [sp, #16]               ; 16-byte Folded Reload
	add	sp, sp, #80                     ; =80
	b	_putchar
	.loh AdrpAdd	Lloh72, Lloh73
	.loh AdrpAdd	Lloh70, Lloh71
	.loh AdrpAdd	Lloh68, Lloh69
	.loh AdrpAdd	Lloh66, Lloh67
	.loh AdrpAdd	Lloh64, Lloh65
	.loh AdrpAdd	Lloh62, Lloh63
	.loh AdrpAdd	Lloh60, Lloh61
	.cfi_endproc
                                        ; -- End function
	.globl	__Z7processRNSt3__16vectorINS_12basic_stringIcNS_11char_traitsIcEENS_9allocatorIcEEEENS4_IS6_EEEEm ; -- Begin function _Z7processRNSt3__16vectorINS_12basic_stringIcNS_11char_traitsIcEENS_9allocatorIcEEEENS4_IS6_EEEEm
	.p2align	2
__Z7processRNSt3__16vectorINS_12basic_stringIcNS_11char_traitsIcEENS_9allocatorIcEEEENS4_IS6_EEEEm: ; @_Z7processRNSt3__16vectorINS_12basic_stringIcNS_11char_traitsIcEENS_9allocatorIcEEEENS4_IS6_EEEEm
Lfunc_begin4:
	.cfi_startproc
	.cfi_personality 155, ___gxx_personality_v0
	.cfi_lsda 16, Lexception4
; %bb.0:
	sub	sp, sp, #256                    ; =256
	stp	d9, d8, [sp, #192]              ; 16-byte Folded Spill
	stp	x22, x21, [sp, #208]            ; 16-byte Folded Spill
	stp	x20, x19, [sp, #224]            ; 16-byte Folded Spill
	stp	x29, x30, [sp, #240]            ; 16-byte Folded Spill
	add	x29, sp, #240                   ; =240
	.cfi_def_cfa w29, 16
	.cfi_offset w30, -8
	.cfi_offset w29, -16
	.cfi_offset w19, -24
	.cfi_offset w20, -32
	.cfi_offset w21, -40
	.cfi_offset w22, -48
	.cfi_offset b8, -56
	.cfi_offset b9, -64
	mov	x19, x0
	ucvtf	d0, x1
	mov	x8, #4517110426252607488
	fmov	d1, x8
	fmul	d8, d0, d1
Lloh74:
	adrp	x0, __ZNSt3__14coutE@GOTPAGE
Lloh75:
	ldr	x0, [x0, __ZNSt3__14coutE@GOTPAGEOFF]
Lloh76:
	adrp	x1, l_.str.21@PAGE
Lloh77:
	add	x1, x1, l_.str.21@PAGEOFF
	mov	w2, #9
	bl	__ZNSt3__124__put_character_sequenceIcNS_11char_traitsIcEEEERNS_13basic_ostreamIT_T0_EES7_PKS4_m
	mov.16b	v0, v8
	bl	__ZNSt3__113basic_ostreamIcNS_11char_traitsIcEEElsEd
Lloh78:
	adrp	x1, l_.str.22@PAGE
Lloh79:
	add	x1, x1, l_.str.22@PAGEOFF
	mov	w2, #4
	bl	__ZNSt3__124__put_character_sequenceIcNS_11char_traitsIcEEEERNS_13basic_ostreamIT_T0_EES7_PKS4_m
	mov	x20, x0
	ldr	x8, [x0]
	ldur	x8, [x8, #-24]
	add	x0, x0, x8
	sub	x8, x29, #56                    ; =56
	bl	__ZNKSt3__18ios_base6getlocEv
Ltmp76:
Lloh80:
	adrp	x1, __ZNSt3__15ctypeIcE2idE@GOTPAGE
Lloh81:
	ldr	x1, [x1, __ZNSt3__15ctypeIcE2idE@GOTPAGEOFF]
	sub	x0, x29, #56                    ; =56
	bl	__ZNKSt3__16locale9use_facetERNS0_2idE
Ltmp77:
; %bb.1:
	ldr	x8, [x0]
	ldr	x8, [x8, #56]
Ltmp78:
	mov	w1, #10
	blr	x8
Ltmp79:
; %bb.2:
	mov	x21, x0
	sub	x0, x29, #56                    ; =56
	bl	__ZNSt3__16localeD1Ev
	mov	x0, x20
	mov	x1, x21
	bl	__ZNSt3__113basic_ostreamIcNS_11char_traitsIcEEE3putEc
	mov	x0, x20
	bl	__ZNSt3__113basic_ostreamIcNS_11char_traitsIcEEE5flushEv
	mov	w8, #6
	sturb	w8, [x29, #-57]
	mov	w8, #29811
	movk	w8, #29810, lsl #16
	stur	w8, [x29, #-80]
	mov	w8, #25711
	sturh	w8, [x29, #-76]
	sturb	wzr, [x29, #-74]
Lloh82:
	adrp	x1, __Z14findmax_strtodRNSt3__16vectorINS_12basic_stringIcNS_11char_traitsIcEENS_9allocatorIcEEEENS4_IS6_EEEE@PAGE
Lloh83:
	add	x1, x1, __Z14findmax_strtodRNSt3__16vectorINS_12basic_stringIcNS_11char_traitsIcEENS_9allocatorIcEEEENS4_IS6_EEEE@PAGEOFF
	add	x8, sp, #96                     ; =96
	mov	x0, x19
	mov	w2, #100
	bl	__Z10time_it_nsIFdRNSt3__16vectorINS0_12basic_stringIcNS0_11char_traitsIcEENS0_9allocatorIcEEEENS5_IS7_EEEEEENS0_4pairI20performance_countersSD_EESA_RKT_m
	sub	x1, x29, #80                    ; =80
	add	x2, sp, #96                     ; =96
	bl	__Z12pretty_printdmNSt3__112basic_stringIcNS_11char_traitsIcEENS_9allocatorIcEEEENS_4pairI20performance_countersS7_EE
	ldursb	w8, [x29, #-57]
	tbz	w8, #31, LBB6_4
; %bb.3:
	ldur	x0, [x29, #-80]
	bl	__ZdlPv
LBB6_4:
	mov	w0, #10
	bl	_putchar
	mov	w8, #9
	strb	w8, [sp, #95]
	mov	w8, #116
	strh	w8, [sp, #80]
Lloh84:
	adrp	x8, l_.str.24@PAGE
Lloh85:
	add	x8, x8, l_.str.24@PAGEOFF
Lloh86:
	ldr	x8, [x8]
	str	x8, [sp, #72]
Lloh87:
	adrp	x1, __Z17findmax_fastfloatRNSt3__16vectorINS_12basic_stringIcNS_11char_traitsIcEENS_9allocatorIcEEEENS4_IS6_EEEE@PAGE
Lloh88:
	add	x1, x1, __Z17findmax_fastfloatRNSt3__16vectorINS_12basic_stringIcNS_11char_traitsIcEENS_9allocatorIcEEEENS4_IS6_EEEE@PAGEOFF
	add	x8, sp, #8                      ; =8
	mov	x0, x19
	mov	w2, #100
	bl	__Z10time_it_nsIFdRNSt3__16vectorINS0_12basic_stringIcNS0_11char_traitsIcEENS0_9allocatorIcEEEENS5_IS7_EEEEEENS0_4pairI20performance_countersSD_EESA_RKT_m
	add	x1, sp, #72                     ; =72
	add	x2, sp, #8                      ; =8
	bl	__Z12pretty_printdmNSt3__112basic_stringIcNS_11char_traitsIcEENS_9allocatorIcEEEENS_4pairI20performance_countersS7_EE
	ldrsb	w8, [sp, #95]
	tbz	w8, #31, LBB6_6
; %bb.5:
	ldr	x0, [sp, #72]
	bl	__ZdlPv
LBB6_6:
	mov	w0, #10
	bl	_putchar
	ldp	x29, x30, [sp, #240]            ; 16-byte Folded Reload
	ldp	x20, x19, [sp, #224]            ; 16-byte Folded Reload
	ldp	x22, x21, [sp, #208]            ; 16-byte Folded Reload
	ldp	d9, d8, [sp, #192]              ; 16-byte Folded Reload
	add	sp, sp, #256                    ; =256
	ret
LBB6_7:
Ltmp80:
	mov	x19, x0
	sub	x0, x29, #56                    ; =56
	bl	__ZNSt3__16localeD1Ev
	mov	x0, x19
	bl	__Unwind_Resume
	brk	#0x1
	.loh AdrpLdrGot	Lloh80, Lloh81
	.loh AdrpAdd	Lloh78, Lloh79
	.loh AdrpAdd	Lloh76, Lloh77
	.loh AdrpLdrGot	Lloh74, Lloh75
	.loh AdrpAdd	Lloh82, Lloh83
	.loh AdrpAdd	Lloh87, Lloh88
	.loh AdrpAddLdr	Lloh84, Lloh85, Lloh86
Lfunc_end4:
	.cfi_endproc
	.section	__TEXT,__gcc_except_tab
	.p2align	2
GCC_except_table6:
Lexception4:
	.byte	255                             ; @LPStart Encoding = omit
	.byte	255                             ; @TType Encoding = omit
	.byte	1                               ; Call site Encoding = uleb128
	.uleb128 Lcst_end4-Lcst_begin4
Lcst_begin4:
	.uleb128 Lfunc_begin4-Lfunc_begin4      ; >> Call Site 1 <<
	.uleb128 Ltmp76-Lfunc_begin4            ;   Call between Lfunc_begin4 and Ltmp76
	.byte	0                               ;     has no landing pad
	.byte	0                               ;   On action: cleanup
	.uleb128 Ltmp76-Lfunc_begin4            ; >> Call Site 2 <<
	.uleb128 Ltmp79-Ltmp76                  ;   Call between Ltmp76 and Ltmp79
	.uleb128 Ltmp80-Lfunc_begin4            ;     jumps to Ltmp80
	.byte	0                               ;   On action: cleanup
	.uleb128 Ltmp79-Lfunc_begin4            ; >> Call Site 3 <<
	.uleb128 Lfunc_end4-Ltmp79              ;   Call between Ltmp79 and Lfunc_end4
	.byte	0                               ;     has no landing pad
	.byte	0                               ;   On action: cleanup
Lcst_end4:
	.p2align	2
                                        ; -- End function
	.section	__TEXT,__literal8,8byte_literals
	.p2align	3                               ; -- Begin function _Z10time_it_nsIFdRNSt3__16vectorINS0_12basic_stringIcNS0_11char_traitsIcEENS0_9allocatorIcEEEENS5_IS7_EEEEEENS0_4pairI20performance_countersSD_EESA_RKT_m
lCPI7_0:
	.quad	0x7e37e43c8800759c              ; double 1.0000000000000001E+300
	.section	__TEXT,__text,regular,pure_instructions
	.globl	__Z10time_it_nsIFdRNSt3__16vectorINS0_12basic_stringIcNS0_11char_traitsIcEENS0_9allocatorIcEEEENS5_IS7_EEEEEENS0_4pairI20performance_countersSD_EESA_RKT_m
	.weak_def_can_be_hidden	__Z10time_it_nsIFdRNSt3__16vectorINS0_12basic_stringIcNS0_11char_traitsIcEENS0_9allocatorIcEEEENS5_IS7_EEEEEENS0_4pairI20performance_countersSD_EESA_RKT_m
	.p2align	2
__Z10time_it_nsIFdRNSt3__16vectorINS0_12basic_stringIcNS0_11char_traitsIcEENS0_9allocatorIcEEEENS5_IS7_EEEEEENS0_4pairI20performance_countersSD_EESA_RKT_m: ; @_Z10time_it_nsIFdRNSt3__16vectorINS0_12basic_stringIcNS0_11char_traitsIcEENS0_9allocatorIcEEEENS5_IS7_EEEEEENS0_4pairI20performance_countersSD_EESA_RKT_m
	.cfi_startproc
; %bb.0:
	sub	sp, sp, #160                    ; =160
	stp	d15, d14, [sp, #32]             ; 16-byte Folded Spill
	stp	d13, d12, [sp, #48]             ; 16-byte Folded Spill
	stp	d11, d10, [sp, #64]             ; 16-byte Folded Spill
	stp	d9, d8, [sp, #80]               ; 16-byte Folded Spill
	stp	x24, x23, [sp, #96]             ; 16-byte Folded Spill
	stp	x22, x21, [sp, #112]            ; 16-byte Folded Spill
	stp	x20, x19, [sp, #128]            ; 16-byte Folded Spill
	stp	x29, x30, [sp, #144]            ; 16-byte Folded Spill
	add	x29, sp, #144                   ; =144
	.cfi_def_cfa w29, 16
	.cfi_offset w30, -8
	.cfi_offset w29, -16
	.cfi_offset w19, -24
	.cfi_offset w20, -32
	.cfi_offset w21, -40
	.cfi_offset w22, -48
	.cfi_offset w23, -56
	.cfi_offset w24, -64
	.cfi_offset b8, -72
	.cfi_offset b9, -80
	.cfi_offset b10, -88
	.cfi_offset b11, -96
	.cfi_offset b12, -104
	.cfi_offset b13, -112
	.cfi_offset b14, -120
	.cfi_offset b15, -128
	mov	x20, x2
	mov	x22, x1
	mov	x21, x0
	mov	x19, x8
	blr	x1
	fcmp	d0, #0.0
	b.ne	LBB7_2
; %bb.1:
Lloh89:
	adrp	x0, l_str.51@PAGE
Lloh90:
	add	x0, x0, l_str.51@PAGEOFF
	bl	_puts
LBB7_2:
	mov	x0, x21
	blr	x22
	fcmp	d0, #0.0
	b.ne	LBB7_4
; %bb.3:
Lloh91:
	adrp	x0, l_str.51@PAGE
Lloh92:
	add	x0, x0, l_str.51@PAGEOFF
	bl	_puts
LBB7_4:
	mov	x0, x21
	blr	x22
	fcmp	d0, #0.0
	b.ne	LBB7_6
; %bb.5:
Lloh93:
	adrp	x0, l_str.51@PAGE
Lloh94:
	add	x0, x0, l_str.51@PAGEOFF
	bl	_puts
LBB7_6:
	mov	x0, x21
	blr	x22
	fcmp	d0, #0.0
	b.ne	LBB7_8
; %bb.7:
Lloh95:
	adrp	x0, l_str.51@PAGE
Lloh96:
	add	x0, x0, l_str.51@PAGEOFF
	bl	_puts
LBB7_8:
	mov	x0, x21
	blr	x22
	fcmp	d0, #0.0
	b.ne	LBB7_10
; %bb.9:
Lloh97:
	adrp	x0, l_str.51@PAGE
Lloh98:
	add	x0, x0, l_str.51@PAGEOFF
	bl	_puts
LBB7_10:
	mov	x0, x21
	blr	x22
	fcmp	d0, #0.0
	b.ne	LBB7_12
; %bb.11:
Lloh99:
	adrp	x0, l_str.51@PAGE
Lloh100:
	add	x0, x0, l_str.51@PAGEOFF
	bl	_puts
LBB7_12:
	mov	x0, x21
	blr	x22
	fcmp	d0, #0.0
	b.ne	LBB7_14
; %bb.13:
Lloh101:
	adrp	x0, l_str.51@PAGE
Lloh102:
	add	x0, x0, l_str.51@PAGEOFF
	bl	_puts
LBB7_14:
	mov	x0, x21
	blr	x22
	fcmp	d0, #0.0
	b.ne	LBB7_16
; %bb.15:
Lloh103:
	adrp	x0, l_str.51@PAGE
Lloh104:
	add	x0, x0, l_str.51@PAGEOFF
	bl	_puts
LBB7_16:
	mov	x0, x21
	blr	x22
	fcmp	d0, #0.0
	b.ne	LBB7_18
; %bb.17:
Lloh105:
	adrp	x0, l_str.51@PAGE
Lloh106:
	add	x0, x0, l_str.51@PAGEOFF
	bl	_puts
LBB7_18:
	mov	x0, x21
	blr	x22
	fcmp	d0, #0.0
	b.ne	LBB7_20
; %bb.19:
Lloh107:
	adrp	x0, l_str.51@PAGE
Lloh108:
	add	x0, x0, l_str.51@PAGEOFF
	bl	_puts
LBB7_20:
	adrp	x8, lCPI7_0@PAGE
	cbz	x20, LBB7_25
; %bb.21:
	movi.2d	v12, #0000000000000000
	ldr	d11, [x8, lCPI7_0@PAGEOFF]
Lloh109:
	adrp	x23, l_str.51@PAGE
Lloh110:
	add	x23, x23, l_str.51@PAGEOFF
	mov	x24, x20
	mov.16b	v13, v11
	mov.16b	v10, v11
	mov.16b	v15, v11
	movi.2d	v8, #0000000000000000
	movi.2d	v9, #0000000000000000
	movi.2d	v14, #0000000000000000
	b	LBB7_23
LBB7_22:                                ;   in Loop: Header=BB7_23 Depth=1
	bl	__Z12get_countersv
	ldr	d4, [sp, #24]                   ; 8-byte Folded Reload
	fsub	d0, d0, d4
	ldr	d4, [sp, #16]                   ; 8-byte Folded Reload
	fsub	d1, d1, d4
	ldr	d4, [sp, #8]                    ; 8-byte Folded Reload
	fsub	d2, d2, d4
	ldr	d4, [sp]                        ; 8-byte Folded Reload
	fsub	d3, d3, d4
	fcmp	d0, d15
	fcsel	d15, d0, d15, mi
	fcmp	d1, d10
	fcsel	d10, d1, d10, mi
	fcmp	d2, d13
	fcsel	d13, d2, d13, mi
	fcmp	d3, d11
	fcsel	d11, d3, d11, mi
	fadd	d14, d14, d0
	fadd	d9, d9, d1
	fadd	d8, d8, d2
	fadd	d12, d12, d3
	subs	x24, x24, #1                    ; =1
	b.eq	LBB7_26
LBB7_23:                                ; =>This Inner Loop Header: Depth=1
	bl	__Z12get_countersv
	stp	d1, d0, [sp, #16]               ; 16-byte Folded Spill
	stp	d3, d2, [sp]                    ; 16-byte Folded Spill
	mov	x0, x21
	blr	x22
	fcmp	d0, #0.0
	b.ne	LBB7_22
; %bb.24:                               ;   in Loop: Header=BB7_23 Depth=1
	mov	x0, x23
	bl	_puts
	b	LBB7_22
LBB7_25:
	movi.2d	v14, #0000000000000000
	ldr	d15, [x8, lCPI7_0@PAGEOFF]
	movi.2d	v9, #0000000000000000
	movi.2d	v8, #0000000000000000
	movi.2d	v12, #0000000000000000
	mov.16b	v10, v15
	mov.16b	v13, v15
	mov.16b	v11, v15
LBB7_26:
	ldp	x9, x8, [x21]
	sub	x8, x8, x9
	asr	x8, x8, #3
	mov	x9, #-6148914691236517206
	movk	x9, #43691
	mul	x8, x8, x9
	mul	x9, x8, x20
	ucvtf	d0, x8
	fdiv	d1, d15, d0
	fdiv	d2, d10, d0
	fdiv	d3, d13, d0
	fdiv	d0, d11, d0
	ucvtf	d4, x9
	fdiv	d5, d14, d4
	fdiv	d6, d9, d4
	fdiv	d7, d8, d4
	stp	d1, d2, [x19]
	stp	d3, d0, [x19, #16]
	stp	d5, d6, [x19, #32]
	fdiv	d0, d12, d4
	stp	d7, d0, [x19, #48]
	ldp	x29, x30, [sp, #144]            ; 16-byte Folded Reload
	ldp	x20, x19, [sp, #128]            ; 16-byte Folded Reload
	ldp	x22, x21, [sp, #112]            ; 16-byte Folded Reload
	ldp	x24, x23, [sp, #96]             ; 16-byte Folded Reload
	ldp	d9, d8, [sp, #80]               ; 16-byte Folded Reload
	ldp	d11, d10, [sp, #64]             ; 16-byte Folded Reload
	ldp	d13, d12, [sp, #48]             ; 16-byte Folded Reload
	ldp	d15, d14, [sp, #32]             ; 16-byte Folded Reload
	add	sp, sp, #160                    ; =160
	ret
	.loh AdrpAdd	Lloh89, Lloh90
	.loh AdrpAdd	Lloh91, Lloh92
	.loh AdrpAdd	Lloh93, Lloh94
	.loh AdrpAdd	Lloh95, Lloh96
	.loh AdrpAdd	Lloh97, Lloh98
	.loh AdrpAdd	Lloh99, Lloh100
	.loh AdrpAdd	Lloh101, Lloh102
	.loh AdrpAdd	Lloh103, Lloh104
	.loh AdrpAdd	Lloh105, Lloh106
	.loh AdrpAdd	Lloh107, Lloh108
	.loh AdrpAdd	Lloh109, Lloh110
	.cfi_endproc
                                        ; -- End function
	.globl	__Z20parse_random_numbersv      ; -- Begin function _Z20parse_random_numbersv
	.p2align	2
__Z20parse_random_numbersv:             ; @_Z20parse_random_numbersv
Lfunc_begin5:
	.cfi_startproc
	.cfi_personality 155, ___gxx_personality_v0
	.cfi_lsda 16, Lexception5
; %bb.0:
	sub	sp, sp, #176                    ; =176
	stp	x28, x27, [sp, #80]             ; 16-byte Folded Spill
	stp	x26, x25, [sp, #96]             ; 16-byte Folded Spill
	stp	x24, x23, [sp, #112]            ; 16-byte Folded Spill
	stp	x22, x21, [sp, #128]            ; 16-byte Folded Spill
	stp	x20, x19, [sp, #144]            ; 16-byte Folded Spill
	stp	x29, x30, [sp, #160]            ; 16-byte Folded Spill
	add	x29, sp, #160                   ; =160
	.cfi_def_cfa w29, 16
	.cfi_offset w30, -8
	.cfi_offset w29, -16
	.cfi_offset w19, -24
	.cfi_offset w20, -32
	.cfi_offset w21, -40
	.cfi_offset w22, -48
	.cfi_offset w23, -56
	.cfi_offset w24, -64
	.cfi_offset w25, -72
	.cfi_offset w26, -80
	.cfi_offset w27, -88
	.cfi_offset w28, -96
Lloh111:
	adrp	x0, __ZNSt3__14coutE@GOTPAGE
Lloh112:
	ldr	x0, [x0, __ZNSt3__14coutE@GOTPAGEOFF]
Lloh113:
	adrp	x1, l_.str.25@PAGE
Lloh114:
	add	x1, x1, l_.str.25@PAGEOFF
	mov	w2, #24
	bl	__ZNSt3__124__put_character_sequenceIcNS_11char_traitsIcEEEERNS_13basic_ostreamIT_T0_EES7_PKS4_m
	mov	x19, x0
	ldr	x8, [x0]
	ldur	x8, [x8, #-24]
	add	x0, x0, x8
	add	x8, sp, #48                     ; =48
	bl	__ZNKSt3__18ios_base6getlocEv
Ltmp81:
Lloh115:
	adrp	x1, __ZNSt3__15ctypeIcE2idE@GOTPAGE
Lloh116:
	ldr	x1, [x1, __ZNSt3__15ctypeIcE2idE@GOTPAGEOFF]
	add	x0, sp, #48                     ; =48
	bl	__ZNKSt3__16locale9use_facetERNS0_2idE
Ltmp82:
; %bb.1:
	ldr	x8, [x0]
	ldr	x8, [x8, #56]
Ltmp83:
	mov	w1, #10
	blr	x8
Ltmp84:
; %bb.2:
	mov	x20, x0
	add	x0, sp, #48                     ; =48
	bl	__ZNSt3__16localeD1Ev
	mov	x0, x19
	mov	x1, x20
	bl	__ZNSt3__113basic_ostreamIcNS_11char_traitsIcEEE3putEc
	mov	x0, x19
	bl	__ZNSt3__113basic_ostreamIcNS_11char_traitsIcEEE5flushEv
	stp	xzr, xzr, [sp, #48]
	str	xzr, [sp, #64]
	mov	w8, #7
	strb	w8, [sp, #47]
	mov	w8, #28277
	movk	w8, #26217, lsl #16
	str	w8, [sp, #24]
	mov	w8, #28518
	movk	w8, #28018, lsl #16
	stur	w8, [sp, #27]
	strb	wzr, [sp, #31]
Ltmp86:
	add	x0, sp, #24                     ; =24
	bl	__Z21get_generator_by_nameNSt3__112basic_stringIcNS_11char_traitsIcEENS_9allocatorIcEEEE
Ltmp87:
; %bb.3:
	mov	x19, x0
	ldrsb	w8, [sp, #47]
	tbz	w8, #31, LBB8_5
; %bb.4:
	ldr	x0, [sp, #24]
	bl	__ZdlPv
LBB8_5:
Ltmp89:
Lloh117:
	adrp	x0, __ZNSt3__14coutE@GOTPAGE
Lloh118:
	ldr	x0, [x0, __ZNSt3__14coutE@GOTPAGEOFF]
Lloh119:
	adrp	x1, l_.str.26@PAGE
Lloh120:
	add	x1, x1, l_.str.26@PAGEOFF
	mov	w2, #7
	bl	__ZNSt3__124__put_character_sequenceIcNS_11char_traitsIcEEEERNS_13basic_ostreamIT_T0_EES7_PKS4_m
Ltmp90:
; %bb.6:
	mov	x20, x0
	ldr	x8, [x19]
	ldr	x9, [x8, #8]
Ltmp91:
	mov	x21, sp
	mov	x8, sp
	mov	x0, x19
	blr	x9
Ltmp92:
; %bb.7:
	ldrb	w8, [sp, #23]
	sxtb	w9, w8
	ldp	x10, x11, [sp]
	cmp	w9, #0                          ; =0
	csel	x1, x10, x21, lt
	csel	x2, x11, x8, lt
Ltmp94:
	mov	x0, x20
	bl	__ZNSt3__124__put_character_sequenceIcNS_11char_traitsIcEEEERNS_13basic_ostreamIT_T0_EES7_PKS4_m
Ltmp95:
; %bb.8:
	mov	x20, x0
	ldr	x8, [x0]
	ldur	x8, [x8, #-24]
	add	x0, x0, x8
Ltmp96:
	add	x8, sp, #72                     ; =72
	bl	__ZNKSt3__18ios_base6getlocEv
Ltmp97:
; %bb.9:
Ltmp98:
Lloh121:
	adrp	x1, __ZNSt3__15ctypeIcE2idE@GOTPAGE
Lloh122:
	ldr	x1, [x1, __ZNSt3__15ctypeIcE2idE@GOTPAGEOFF]
	add	x0, sp, #72                     ; =72
	bl	__ZNKSt3__16locale9use_facetERNS0_2idE
Ltmp99:
; %bb.10:
	ldr	x8, [x0]
	ldr	x8, [x8, #56]
Ltmp100:
	mov	w1, #10
	blr	x8
Ltmp101:
; %bb.11:
	mov	x21, x0
	add	x0, sp, #72                     ; =72
	bl	__ZNSt3__16localeD1Ev
Ltmp103:
	mov	x0, x20
	mov	x1, x21
	bl	__ZNSt3__113basic_ostreamIcNS_11char_traitsIcEEE3putEc
Ltmp104:
; %bb.12:
Ltmp105:
	mov	x0, x20
	bl	__ZNSt3__113basic_ostreamIcNS_11char_traitsIcEEE5flushEv
Ltmp106:
; %bb.13:
	ldrsb	w8, [sp, #23]
	tbz	w8, #31, LBB8_15
; %bb.14:
	ldr	x0, [sp]
	bl	__ZdlPv
LBB8_15:
Ltmp108:
Lloh123:
	adrp	x0, __ZNSt3__14coutE@GOTPAGE
Lloh124:
	ldr	x0, [x0, __ZNSt3__14coutE@GOTPAGEOFF]
Lloh125:
	adrp	x1, l_.str.27@PAGE
Lloh126:
	add	x1, x1, l_.str.27@PAGEOFF
	mov	w2, #8
	bl	__ZNSt3__124__put_character_sequenceIcNS_11char_traitsIcEEEERNS_13basic_ostreamIT_T0_EES7_PKS4_m
Ltmp109:
; %bb.16:
Ltmp110:
	mov	w1, #10000
	bl	__ZNSt3__113basic_ostreamIcNS_11char_traitsIcEEElsEm
Ltmp111:
; %bb.17:
Ltmp112:
Lloh127:
	adrp	x1, l_.str.28@PAGE
Lloh128:
	add	x1, x1, l_.str.28@PAGEOFF
	mov	w2, #7
	bl	__ZNSt3__124__put_character_sequenceIcNS_11char_traitsIcEEEERNS_13basic_ostreamIT_T0_EES7_PKS4_m
Ltmp113:
; %bb.18:
	mov	x20, x0
	ldr	x8, [x0]
	ldur	x8, [x8, #-24]
	add	x0, x0, x8
Ltmp114:
	mov	x8, sp
	bl	__ZNKSt3__18ios_base6getlocEv
Ltmp115:
; %bb.19:
Ltmp116:
Lloh129:
	adrp	x1, __ZNSt3__15ctypeIcE2idE@GOTPAGE
Lloh130:
	ldr	x1, [x1, __ZNSt3__15ctypeIcE2idE@GOTPAGEOFF]
	mov	x0, sp
	bl	__ZNKSt3__16locale9use_facetERNS0_2idE
Ltmp117:
; %bb.20:
	ldr	x8, [x0]
	ldr	x8, [x8, #56]
Ltmp118:
	mov	w1, #10
	blr	x8
Ltmp119:
; %bb.21:
	mov	x21, x0
	mov	x0, sp
	bl	__ZNSt3__16localeD1Ev
Ltmp121:
	mov	x0, x20
	mov	x1, x21
	bl	__ZNSt3__113basic_ostreamIcNS_11char_traitsIcEEE3putEc
Ltmp122:
; %bb.22:
Ltmp123:
	mov	x0, x20
	bl	__ZNSt3__113basic_ostreamIcNS_11char_traitsIcEEE5flushEv
Ltmp124:
; %bb.23:
	ldr	x8, [sp, #64]
	ldr	x20, [sp, #48]
	sub	x8, x8, x20
	asr	x8, x8, #3
	mov	x22, #-6148914691236517206
	movk	x22, #43691
	mul	x8, x8, x22
	lsr	x8, x8, #4
	cmp	x8, #624                        ; =624
	b.hi	LBB8_35
; %bb.24:
	ldr	x21, [sp, #56]
Ltmp125:
	mov	w0, #43392
	movk	w0, #3, lsl #16
	bl	__Znwm
Ltmp126:
; %bb.25:
	mov	w8, #43392
	movk	w8, #3, lsl #16
	add	x8, x0, x8
	subs	x9, x21, x20
	add	x9, x0, x9
	b.eq	LBB8_32
; %bb.26:
	mov	x10, x9
LBB8_27:                                ; =>This Inner Loop Header: Depth=1
	ldur	q0, [x21, #-24]
	ldur	x11, [x21, #-8]
	stur	x11, [x10, #-8]
	stur	q0, [x10, #-24]
	stp	xzr, xzr, [x21, #-16]
	stur	xzr, [x21, #-24]
	sub	x11, x21, #24                   ; =24
	sub	x10, x10, #24                   ; =24
	mov	x21, x11
	cmp	x20, x11
	b.ne	LBB8_27
; %bb.28:
	ldp	x20, x11, [sp, #48]
	stp	x10, x9, [sp, #48]
	str	x8, [sp, #64]
	cmp	x11, x20
	b.ne	LBB8_30
	b	LBB8_33
LBB8_29:                                ;   in Loop: Header=BB8_30 Depth=1
	mov	x11, x21
	cmp	x20, x21
	b.eq	LBB8_33
LBB8_30:                                ; =>This Inner Loop Header: Depth=1
	sub	x21, x11, #24                   ; =24
	ldursb	w8, [x11, #-1]
	tbz	w8, #31, LBB8_29
; %bb.31:                               ;   in Loop: Header=BB8_30 Depth=1
	ldur	x0, [x11, #-24]
	bl	__ZdlPv
	b	LBB8_29
LBB8_32:
	stp	x9, x9, [sp, #48]
	str	x8, [sp, #64]
LBB8_33:
	cbz	x20, LBB8_35
; %bb.34:
	mov	x0, x20
	bl	__ZdlPv
LBB8_35:
	mov	x23, #0
	mov	x20, #0
	mov	x24, #-6148914691236517206
	movk	x24, #2730, lsl #48
	mov	w26, #24
	mov	w27, #10000
	b	LBB8_37
LBB8_36:                                ;   in Loop: Header=BB8_37 Depth=1
	add	x23, x23, #1                    ; =1
	cmp	x23, x27
	b.eq	LBB8_60
LBB8_37:                                ; =>This Loop Header: Depth=1
                                        ;     Child Loop BB8_49 Depth 2
                                        ;     Child Loop BB8_58 Depth 2
	ldr	x8, [x19]
	ldr	x9, [x8]
Ltmp128:
	mov	x8, sp
	mov	x0, x19
	blr	x9
Ltmp129:
; %bb.38:                               ;   in Loop: Header=BB8_37 Depth=1
	ldrb	w8, [sp, #23]
	sxtb	w9, w8
	ldr	x10, [sp, #8]
	cmp	w9, #0                          ; =0
	csel	x28, x10, x8, lt
	ldp	x21, x8, [sp, #56]
	cmp	x21, x8
	b.eq	LBB8_41
; %bb.39:                               ;   in Loop: Header=BB8_37 Depth=1
Ltmp131:
	mov	x1, sp
	mov	x0, x21
	bl	__ZNSt3__112basic_stringIcNS_11char_traitsIcEENS_9allocatorIcEEEC1ERKS5_
Ltmp132:
; %bb.40:                               ;   in Loop: Header=BB8_37 Depth=1
	add	x8, x21, #24                    ; =24
	str	x8, [sp, #56]
	b	LBB8_55
LBB8_41:                                ;   in Loop: Header=BB8_37 Depth=1
	ldr	x10, [sp, #48]
	sub	x9, x21, x10
	asr	x9, x9, #3
	mul	x25, x9, x22
	add	x9, x25, #1                     ; =1
	cmp	x9, x24
	b.hi	LBB8_70
; %bb.42:                               ;   in Loop: Header=BB8_37 Depth=1
	sub	x8, x8, x10
	asr	x8, x8, #3
	mul	x8, x8, x22
	lsl	x10, x8, #1
	cmp	x10, x9
	csel	x9, x9, x10, lo
	mov	x10, #6148914691236517205
	movk	x10, #1365, lsl #48
	cmp	x8, x10
	csel	x22, x9, x24, lo
	cbz	x22, LBB8_46
; %bb.43:                               ;   in Loop: Header=BB8_37 Depth=1
	cmp	x22, x24
	b.hi	LBB8_71
; %bb.44:                               ;   in Loop: Header=BB8_37 Depth=1
	add	x8, x22, x22, lsl #1
	lsl	x0, x8, #3
Ltmp134:
	bl	__Znwm
Ltmp135:
; %bb.45:                               ;   in Loop: Header=BB8_37 Depth=1
	mov	x21, x0
	b	LBB8_47
LBB8_46:                                ;   in Loop: Header=BB8_37 Depth=1
	mov	x21, #0
LBB8_47:                                ;   in Loop: Header=BB8_37 Depth=1
	madd	x0, x25, x26, x21
Ltmp139:
	mov	x1, sp
	bl	__ZNSt3__112basic_stringIcNS_11char_traitsIcEENS_9allocatorIcEEEC1ERKS5_
Ltmp140:
; %bb.48:                               ;   in Loop: Header=BB8_37 Depth=1
	madd	x9, x22, x26, x21
	add	x10, x0, #24                    ; =24
	ldp	x8, x11, [sp, #48]
	cmp	x11, x8
	b.eq	LBB8_51
LBB8_49:                                ;   Parent Loop BB8_37 Depth=1
                                        ; =>  This Inner Loop Header: Depth=2
	ldur	q0, [x11, #-24]
	ldur	x12, [x11, #-8]
	stur	x12, [x0, #-8]
	stur	q0, [x0, #-24]
	stp	xzr, xzr, [x11, #-16]
	stur	xzr, [x11, #-24]
	sub	x12, x11, #24                   ; =24
	sub	x0, x0, #24                     ; =24
	mov	x11, x12
	cmp	x8, x12
	b.ne	LBB8_49
; %bb.50:                               ;   in Loop: Header=BB8_37 Depth=1
	ldp	x21, x8, [sp, #48]
	b	LBB8_52
LBB8_51:                                ;   in Loop: Header=BB8_37 Depth=1
	mov	x21, x8
LBB8_52:                                ;   in Loop: Header=BB8_37 Depth=1
	stp	x0, x10, [sp, #48]
	str	x9, [sp, #64]
	cmp	x8, x21
	b.ne	LBB8_58
LBB8_53:                                ;   in Loop: Header=BB8_37 Depth=1
	mov	x22, #-6148914691236517206
	movk	x22, #43691
	cbz	x21, LBB8_55
; %bb.54:                               ;   in Loop: Header=BB8_37 Depth=1
	mov	x0, x21
	bl	__ZdlPv
LBB8_55:                                ;   in Loop: Header=BB8_37 Depth=1
	add	x20, x28, x20
	ldrsb	w8, [sp, #23]
	tbz	w8, #31, LBB8_36
; %bb.56:                               ;   in Loop: Header=BB8_37 Depth=1
	ldr	x0, [sp]
	bl	__ZdlPv
	b	LBB8_36
LBB8_57:                                ;   in Loop: Header=BB8_58 Depth=2
	mov	x8, x22
	cmp	x21, x22
	b.eq	LBB8_53
LBB8_58:                                ;   Parent Loop BB8_37 Depth=1
                                        ; =>  This Inner Loop Header: Depth=2
	sub	x22, x8, #24                    ; =24
	ldursb	w9, [x8, #-1]
	tbz	w9, #31, LBB8_57
; %bb.59:                               ;   in Loop: Header=BB8_58 Depth=2
	ldur	x0, [x8, #-24]
	bl	__ZdlPv
	b	LBB8_57
LBB8_60:
Ltmp142:
	add	x0, sp, #48                     ; =48
	mov	x1, x20
	bl	__Z7processRNSt3__16vectorINS_12basic_stringIcNS_11char_traitsIcEENS_9allocatorIcEEEENS4_IS6_EEEEm
Ltmp143:
; %bb.61:
	ldr	x8, [x19]
	ldr	x8, [x8, #24]
	mov	x0, x19
	blr	x8
	ldr	x19, [sp, #48]
	cbz	x19, LBB8_69
; %bb.62:
	ldr	x8, [sp, #56]
	cmp	x8, x19
	b.ne	LBB8_65
; %bb.63:
	mov	x0, x19
	b	LBB8_68
LBB8_64:                                ;   in Loop: Header=BB8_65 Depth=1
	mov	x8, x20
	cmp	x19, x20
	b.eq	LBB8_67
LBB8_65:                                ; =>This Inner Loop Header: Depth=1
	sub	x20, x8, #24                    ; =24
	ldursb	w9, [x8, #-1]
	tbz	w9, #31, LBB8_64
; %bb.66:                               ;   in Loop: Header=BB8_65 Depth=1
	ldur	x0, [x8, #-24]
	bl	__ZdlPv
	b	LBB8_64
LBB8_67:
	ldr	x0, [sp, #48]
LBB8_68:
	str	x19, [sp, #56]
	bl	__ZdlPv
LBB8_69:
	ldp	x29, x30, [sp, #160]            ; 16-byte Folded Reload
	ldp	x20, x19, [sp, #144]            ; 16-byte Folded Reload
	ldp	x22, x21, [sp, #128]            ; 16-byte Folded Reload
	ldp	x24, x23, [sp, #112]            ; 16-byte Folded Reload
	ldp	x26, x25, [sp, #96]             ; 16-byte Folded Reload
	ldp	x28, x27, [sp, #80]             ; 16-byte Folded Reload
	add	sp, sp, #176                    ; =176
	ret
LBB8_70:
Ltmp145:
	add	x0, sp, #48                     ; =48
	bl	__ZNKSt3__120__vector_base_commonILb1EE20__throw_length_errorEv
Ltmp146:
	b	LBB8_72
LBB8_71:
Ltmp137:
	bl	__ZNSt3__1L20__throw_length_errorEPKc
Ltmp138:
LBB8_72:
	brk	#0x1
LBB8_73:
Ltmp147:
	b	LBB8_83
LBB8_74:
Ltmp144:
	b	LBB8_91
LBB8_75:
Ltmp93:
	b	LBB8_91
LBB8_76:
Ltmp88:
	mov	x20, x0
	ldrsb	w8, [sp, #47]
	tbz	w8, #31, LBB8_93
; %bb.77:
	ldr	x0, [sp, #24]
	bl	__ZdlPv
	b	LBB8_93
LBB8_78:
Ltmp120:
	mov	x20, x0
	mov	x0, sp
	bl	__ZNSt3__16localeD1Ev
	b	LBB8_92
LBB8_79:
Ltmp102:
	mov	x20, x0
	add	x0, sp, #72                     ; =72
	bl	__ZNSt3__16localeD1Ev
	b	LBB8_88
LBB8_80:
Ltmp85:
	mov	x20, x0
	add	x0, sp, #48                     ; =48
	bl	__ZNSt3__16localeD1Ev
	b	LBB8_100
LBB8_81:
Ltmp107:
	b	LBB8_83
LBB8_82:
Ltmp136:
LBB8_83:
	mov	x20, x0
	b	LBB8_88
LBB8_84:
Ltmp127:
	b	LBB8_91
LBB8_85:
Ltmp141:
	mov	x20, x0
	cbz	x21, LBB8_88
; %bb.86:
	mov	x0, x21
	bl	__ZdlPv
	b	LBB8_88
LBB8_87:
Ltmp133:
	mov	x20, x0
	str	x21, [sp, #56]
LBB8_88:
	ldrsb	w8, [sp, #23]
	tbz	w8, #31, LBB8_92
; %bb.89:
	ldr	x0, [sp]
	bl	__ZdlPv
	b	LBB8_92
LBB8_90:
Ltmp130:
LBB8_91:
	mov	x20, x0
LBB8_92:
	ldr	x8, [x19]
	ldr	x8, [x8, #24]
	mov	x0, x19
	blr	x8
LBB8_93:
	ldr	x19, [sp, #48]
	cbz	x19, LBB8_100
; %bb.94:
	ldr	x8, [sp, #56]
	mov	x0, x19
	cmp	x8, x19
	b.eq	LBB8_99
LBB8_95:                                ; =>This Inner Loop Header: Depth=1
	sub	x21, x8, #24                    ; =24
	ldursb	w9, [x8, #-1]
	tbz	w9, #31, LBB8_97
; %bb.96:                               ;   in Loop: Header=BB8_95 Depth=1
	ldur	x0, [x8, #-24]
	bl	__ZdlPv
LBB8_97:                                ;   in Loop: Header=BB8_95 Depth=1
	mov	x8, x21
	cmp	x19, x21
	b.ne	LBB8_95
; %bb.98:
	ldr	x0, [sp, #48]
LBB8_99:
	str	x19, [sp, #56]
	bl	__ZdlPv
LBB8_100:
	mov	x0, x20
	bl	__Unwind_Resume
	brk	#0x1
	.loh AdrpLdrGot	Lloh115, Lloh116
	.loh AdrpAdd	Lloh113, Lloh114
	.loh AdrpLdrGot	Lloh111, Lloh112
	.loh AdrpAdd	Lloh119, Lloh120
	.loh AdrpLdrGot	Lloh117, Lloh118
	.loh AdrpLdrGot	Lloh121, Lloh122
	.loh AdrpAdd	Lloh125, Lloh126
	.loh AdrpLdrGot	Lloh123, Lloh124
	.loh AdrpAdd	Lloh127, Lloh128
	.loh AdrpLdrGot	Lloh129, Lloh130
Lfunc_end5:
	.cfi_endproc
	.section	__TEXT,__gcc_except_tab
	.p2align	2
GCC_except_table8:
Lexception5:
	.byte	255                             ; @LPStart Encoding = omit
	.byte	255                             ; @TType Encoding = omit
	.byte	1                               ; Call site Encoding = uleb128
	.uleb128 Lcst_end5-Lcst_begin5
Lcst_begin5:
	.uleb128 Lfunc_begin5-Lfunc_begin5      ; >> Call Site 1 <<
	.uleb128 Ltmp81-Lfunc_begin5            ;   Call between Lfunc_begin5 and Ltmp81
	.byte	0                               ;     has no landing pad
	.byte	0                               ;   On action: cleanup
	.uleb128 Ltmp81-Lfunc_begin5            ; >> Call Site 2 <<
	.uleb128 Ltmp84-Ltmp81                  ;   Call between Ltmp81 and Ltmp84
	.uleb128 Ltmp85-Lfunc_begin5            ;     jumps to Ltmp85
	.byte	0                               ;   On action: cleanup
	.uleb128 Ltmp84-Lfunc_begin5            ; >> Call Site 3 <<
	.uleb128 Ltmp86-Ltmp84                  ;   Call between Ltmp84 and Ltmp86
	.byte	0                               ;     has no landing pad
	.byte	0                               ;   On action: cleanup
	.uleb128 Ltmp86-Lfunc_begin5            ; >> Call Site 4 <<
	.uleb128 Ltmp87-Ltmp86                  ;   Call between Ltmp86 and Ltmp87
	.uleb128 Ltmp88-Lfunc_begin5            ;     jumps to Ltmp88
	.byte	0                               ;   On action: cleanup
	.uleb128 Ltmp89-Lfunc_begin5            ; >> Call Site 5 <<
	.uleb128 Ltmp90-Ltmp89                  ;   Call between Ltmp89 and Ltmp90
	.uleb128 Ltmp127-Lfunc_begin5           ;     jumps to Ltmp127
	.byte	0                               ;   On action: cleanup
	.uleb128 Ltmp91-Lfunc_begin5            ; >> Call Site 6 <<
	.uleb128 Ltmp92-Ltmp91                  ;   Call between Ltmp91 and Ltmp92
	.uleb128 Ltmp93-Lfunc_begin5            ;     jumps to Ltmp93
	.byte	0                               ;   On action: cleanup
	.uleb128 Ltmp94-Lfunc_begin5            ; >> Call Site 7 <<
	.uleb128 Ltmp97-Ltmp94                  ;   Call between Ltmp94 and Ltmp97
	.uleb128 Ltmp107-Lfunc_begin5           ;     jumps to Ltmp107
	.byte	0                               ;   On action: cleanup
	.uleb128 Ltmp98-Lfunc_begin5            ; >> Call Site 8 <<
	.uleb128 Ltmp101-Ltmp98                 ;   Call between Ltmp98 and Ltmp101
	.uleb128 Ltmp102-Lfunc_begin5           ;     jumps to Ltmp102
	.byte	0                               ;   On action: cleanup
	.uleb128 Ltmp103-Lfunc_begin5           ; >> Call Site 9 <<
	.uleb128 Ltmp106-Ltmp103                ;   Call between Ltmp103 and Ltmp106
	.uleb128 Ltmp107-Lfunc_begin5           ;     jumps to Ltmp107
	.byte	0                               ;   On action: cleanup
	.uleb128 Ltmp108-Lfunc_begin5           ; >> Call Site 10 <<
	.uleb128 Ltmp115-Ltmp108                ;   Call between Ltmp108 and Ltmp115
	.uleb128 Ltmp127-Lfunc_begin5           ;     jumps to Ltmp127
	.byte	0                               ;   On action: cleanup
	.uleb128 Ltmp116-Lfunc_begin5           ; >> Call Site 11 <<
	.uleb128 Ltmp119-Ltmp116                ;   Call between Ltmp116 and Ltmp119
	.uleb128 Ltmp120-Lfunc_begin5           ;     jumps to Ltmp120
	.byte	0                               ;   On action: cleanup
	.uleb128 Ltmp121-Lfunc_begin5           ; >> Call Site 12 <<
	.uleb128 Ltmp126-Ltmp121                ;   Call between Ltmp121 and Ltmp126
	.uleb128 Ltmp127-Lfunc_begin5           ;     jumps to Ltmp127
	.byte	0                               ;   On action: cleanup
	.uleb128 Ltmp128-Lfunc_begin5           ; >> Call Site 13 <<
	.uleb128 Ltmp129-Ltmp128                ;   Call between Ltmp128 and Ltmp129
	.uleb128 Ltmp130-Lfunc_begin5           ;     jumps to Ltmp130
	.byte	0                               ;   On action: cleanup
	.uleb128 Ltmp131-Lfunc_begin5           ; >> Call Site 14 <<
	.uleb128 Ltmp132-Ltmp131                ;   Call between Ltmp131 and Ltmp132
	.uleb128 Ltmp133-Lfunc_begin5           ;     jumps to Ltmp133
	.byte	0                               ;   On action: cleanup
	.uleb128 Ltmp134-Lfunc_begin5           ; >> Call Site 15 <<
	.uleb128 Ltmp135-Ltmp134                ;   Call between Ltmp134 and Ltmp135
	.uleb128 Ltmp136-Lfunc_begin5           ;     jumps to Ltmp136
	.byte	0                               ;   On action: cleanup
	.uleb128 Ltmp139-Lfunc_begin5           ; >> Call Site 16 <<
	.uleb128 Ltmp140-Ltmp139                ;   Call between Ltmp139 and Ltmp140
	.uleb128 Ltmp141-Lfunc_begin5           ;     jumps to Ltmp141
	.byte	0                               ;   On action: cleanup
	.uleb128 Ltmp142-Lfunc_begin5           ; >> Call Site 17 <<
	.uleb128 Ltmp143-Ltmp142                ;   Call between Ltmp142 and Ltmp143
	.uleb128 Ltmp144-Lfunc_begin5           ;     jumps to Ltmp144
	.byte	0                               ;   On action: cleanup
	.uleb128 Ltmp143-Lfunc_begin5           ; >> Call Site 18 <<
	.uleb128 Ltmp145-Ltmp143                ;   Call between Ltmp143 and Ltmp145
	.byte	0                               ;     has no landing pad
	.byte	0                               ;   On action: cleanup
	.uleb128 Ltmp145-Lfunc_begin5           ; >> Call Site 19 <<
	.uleb128 Ltmp138-Ltmp145                ;   Call between Ltmp145 and Ltmp138
	.uleb128 Ltmp147-Lfunc_begin5           ;     jumps to Ltmp147
	.byte	0                               ;   On action: cleanup
	.uleb128 Ltmp138-Lfunc_begin5           ; >> Call Site 20 <<
	.uleb128 Lfunc_end5-Ltmp138             ;   Call between Ltmp138 and Lfunc_end5
	.byte	0                               ;     has no landing pad
	.byte	0                               ;   On action: cleanup
Lcst_end5:
	.p2align	2
                                        ; -- End function
	.section	__TEXT,__text,regular,pure_instructions
	.globl	_main                           ; -- Begin function main
	.p2align	2
_main:                                  ; @main
	.cfi_startproc
; %bb.0:
	stp	x29, x30, [sp, #-16]!           ; 16-byte Folded Spill
	mov	x29, sp
	.cfi_def_cfa w29, 16
	.cfi_offset w30, -8
	.cfi_offset w29, -16
	bl	__Z26setup_performance_countersv
	bl	__Z20parse_random_numbersv
	mov	w0, #0
	ldp	x29, x30, [sp], #16             ; 16-byte Folded Reload
	ret
	.cfi_endproc
                                        ; -- End function
	.globl	__ZN17uniform_generatorC2Edd    ; -- Begin function _ZN17uniform_generatorC2Edd
	.weak_def_can_be_hidden	__ZN17uniform_generatorC2Edd
	.p2align	2
__ZN17uniform_generatorC2Edd:           ; @_ZN17uniform_generatorC2Edd
Lfunc_begin6:
	.cfi_startproc
	.cfi_personality 155, ___gxx_personality_v0
	.cfi_lsda 16, Lexception6
; %bb.0:
	sub	sp, sp, #80                     ; =80
	stp	d9, d8, [sp, #32]               ; 16-byte Folded Spill
	stp	x20, x19, [sp, #48]             ; 16-byte Folded Spill
	stp	x29, x30, [sp, #64]             ; 16-byte Folded Spill
	add	x29, sp, #64                    ; =64
	.cfi_def_cfa w29, 16
	.cfi_offset w30, -8
	.cfi_offset w29, -16
	.cfi_offset w19, -24
	.cfi_offset w20, -32
	.cfi_offset b8, -40
	.cfi_offset b9, -48
	mov.16b	v8, v1
	mov.16b	v9, v0
	mov	x19, x0
Lloh131:
	adrp	x8, __ZTV17uniform_generator@GOTPAGE
Lloh132:
	ldr	x8, [x8, __ZTV17uniform_generator@GOTPAGEOFF]
	add	x8, x8, #16                     ; =16
	mov	x20, x0
	str	x8, [x20], #8
	mov	w8, #12
	strb	w8, [sp, #31]
	mov	w8, #25710
	movk	w8, #28015, lsl #16
	str	w8, [sp, #16]
Lloh133:
	adrp	x8, l_.str.29@PAGE
Lloh134:
	add	x8, x8, l_.str.29@PAGEOFF
Lloh135:
	ldr	x8, [x8]
	str	x8, [sp, #8]
	strb	wzr, [sp, #20]
Ltmp148:
	add	x1, sp, #8                      ; =8
	mov	x0, x20
	bl	__ZNSt3__113random_deviceC1ERKNS_12basic_stringIcNS_11char_traitsIcEENS_9allocatorIcEEEE
Ltmp149:
; %bb.1:
	ldrsb	w8, [sp, #31]
	tbz	w8, #31, LBB10_3
; %bb.2:
	ldr	x0, [sp, #8]
	bl	__ZdlPv
LBB10_3:
Ltmp151:
	mov	x0, x20
	bl	__ZNSt3__113random_deviceclEv
Ltmp152:
; %bb.4:
	str	w0, [x19, #16]
	mov	w8, #1
	mov	w9, #5
	mov	w10, #35173
	movk	w10, #27655, lsl #16
LBB10_5:                                ; =>This Inner Loop Header: Depth=1
	eor	w11, w0, w0, lsr #30
	mul	w11, w11, w10
	add	w0, w11, w8
	add	w11, w9, w11
	sub	w11, w11, #4                    ; =4
	str	w11, [x19, x9, lsl #2]
	add	x8, x8, #1                      ; =1
	add	x9, x9, #1                      ; =1
	cmp	x9, #628                        ; =628
	b.ne	LBB10_5
; %bb.6:
	str	xzr, [x19, #2512]
	str	d9, [x19, #2520]
	str	d8, [x19, #2528]
	mov	x0, x19
	ldp	x29, x30, [sp, #64]             ; 16-byte Folded Reload
	ldp	x20, x19, [sp, #48]             ; 16-byte Folded Reload
	ldp	d9, d8, [sp, #32]               ; 16-byte Folded Reload
	add	sp, sp, #80                     ; =80
	ret
LBB10_7:
Ltmp153:
	mov	x19, x0
	mov	x0, x20
	bl	__ZNSt3__113random_deviceD1Ev
	b	LBB10_10
LBB10_8:
Ltmp150:
	mov	x19, x0
	ldrsb	w8, [sp, #31]
	tbz	w8, #31, LBB10_10
; %bb.9:
	ldr	x0, [sp, #8]
	bl	__ZdlPv
LBB10_10:
	mov	x0, x19
	bl	__Unwind_Resume
	brk	#0x1
	.loh AdrpAddLdr	Lloh133, Lloh134, Lloh135
	.loh AdrpLdrGot	Lloh131, Lloh132
Lfunc_end6:
	.cfi_endproc
	.section	__TEXT,__gcc_except_tab
	.p2align	2
GCC_except_table10:
Lexception6:
	.byte	255                             ; @LPStart Encoding = omit
	.byte	255                             ; @TType Encoding = omit
	.byte	1                               ; Call site Encoding = uleb128
	.uleb128 Lcst_end6-Lcst_begin6
Lcst_begin6:
	.uleb128 Ltmp148-Lfunc_begin6           ; >> Call Site 1 <<
	.uleb128 Ltmp149-Ltmp148                ;   Call between Ltmp148 and Ltmp149
	.uleb128 Ltmp150-Lfunc_begin6           ;     jumps to Ltmp150
	.byte	0                               ;   On action: cleanup
	.uleb128 Ltmp151-Lfunc_begin6           ; >> Call Site 2 <<
	.uleb128 Ltmp152-Ltmp151                ;   Call between Ltmp151 and Ltmp152
	.uleb128 Ltmp153-Lfunc_begin6           ;     jumps to Ltmp153
	.byte	0                               ;   On action: cleanup
	.uleb128 Ltmp152-Lfunc_begin6           ; >> Call Site 3 <<
	.uleb128 Lfunc_end6-Ltmp152             ;   Call between Ltmp152 and Lfunc_end6
	.byte	0                               ;     has no landing pad
	.byte	0                               ;   On action: cleanup
Lcst_end6:
	.p2align	2
                                        ; -- End function
	.section	__TEXT,__text,regular,pure_instructions
	.globl	__ZN17uniform_generator10new_stringEv ; -- Begin function _ZN17uniform_generator10new_stringEv
	.weak_def_can_be_hidden	__ZN17uniform_generator10new_stringEv
	.p2align	2
__ZN17uniform_generator10new_stringEv:  ; @_ZN17uniform_generator10new_stringEv
	.cfi_startproc
; %bb.0:
	ldr	d1, [x0, #2528]
	ldr	d0, [x0, #2520]
	fsub	d1, d1, d0
	add	x9, x0, #16                     ; =16
	ldr	x10, [x0, #2512]
	add	x11, x10, #1                    ; =1
	lsr	x12, x11, #4
	mov	x13, #3361
	movk	x13, #8402, lsl #16
	movk	x13, #53773, lsl #32
	movk	x13, #3360, lsl #48
	umulh	x12, x12, x13
	lsr	x12, x12, #1
	mov	w14, #624
	msub	x11, x12, x14, x11
	lsl	x12, x10, #2
	ldr	w15, [x9, x12]
	and	w15, w15, #0x80000000
	lsl	x16, x11, #2
	ldr	w17, [x9, x16]
	and	w1, w17, #0x7ffffffe
	add	x10, x10, #397                  ; =397
	lsr	x2, x10, #4
	umulh	x13, x2, x13
	lsr	x13, x13, #1
	msub	x10, x13, x14, x10
	ldr	w10, [x9, x10, lsl #2]
	orr	w13, w1, w15
	and	w15, w17, #0x1
	mov	w17, #45279
	movk	w17, #39176, lsl #16
	mul	w15, w15, w17
	eor	w10, w15, w10
	eor	w10, w10, w13, lsr #1
	str	w10, [x9, x12]
	eor	w10, w10, w10, lsr #11
	mov	w12, #22144
	movk	w12, #40236, lsl #16
	and	w13, w12, w10, lsl #7
	eor	w10, w13, w10
	mov	w13, #-272236544
	and	w15, w13, w10, lsl #15
	eor	w10, w15, w10
	eor	w10, w10, w10, lsr #18
	ucvtf	d2, w10
	add	w10, w11, #1                    ; =1
	and	w15, w10, #0xffff
	ubfx	w10, w10, #4, #12
	mov	w1, #42011
	movk	w1, #6721, lsl #16
	umull	x10, w10, w1
	lsr	x10, x10, #34
	msub	w10, w10, w14, w15
	ldr	w15, [x9, x16]
	and	w15, w15, #0x80000000
	ldr	w2, [x9, w10, uxtw #2]
	and	w3, w2, #0x7ffffffe
	orr	w15, w3, w15
	add	w11, w11, #397                  ; =397
	and	w3, w11, #0xffff
	ubfx	w11, w11, #4, #12
	umull	x11, w11, w1
	lsr	x11, x11, #34
	msub	w11, w11, w14, w3
	ldr	w11, [x9, w11, uxtw #2]
	and	w14, w2, #0x1
	mul	w14, w14, w17
	eor	w11, w14, w11
	eor	w11, w11, w15, lsr #1
	str	w11, [x9, x16]
	eor	w9, w11, w11, lsr #11
	and	w11, w12, w9, lsl #7
	eor	w9, w11, w9
	and	w11, w13, w9, lsl #15
	eor	w9, w11, w9
	eor	w9, w9, w9, lsr #18
	ucvtf	d3, w9
	mov	x9, #4751297606875873280
	fmov	d4, x9
	fmul	d3, d3, d4
	fadd	d2, d3, d2
	str	x10, [x0, #2512]
	mov	x9, #4318952042648305664
	fmov	d3, x9
	fmul	d2, d2, d3
	fmul	d1, d1, d2
	fadd	d0, d0, d1
	b	__ZNSt3__19to_stringEd
	.cfi_endproc
                                        ; -- End function
	.section	__TEXT,__literal16,16byte_literals
	.p2align	4                               ; -- Begin function _ZN17uniform_generator8describeEv
lCPI12_0:
	.quad	51                              ; 0x33
	.quad	-9223372036854775744            ; 0x8000000000000040
	.section	__TEXT,__text,regular,pure_instructions
	.globl	__ZN17uniform_generator8describeEv
	.weak_def_can_be_hidden	__ZN17uniform_generator8describeEv
	.p2align	2
__ZN17uniform_generator8describeEv:     ; @_ZN17uniform_generator8describeEv
Lfunc_begin7:
	.cfi_startproc
	.cfi_personality 155, ___gxx_personality_v0
	.cfi_lsda 16, Lexception7
; %bb.0:
	sub	sp, sp, #272                    ; =272
	stp	x22, x21, [sp, #224]            ; 16-byte Folded Spill
	stp	x20, x19, [sp, #240]            ; 16-byte Folded Spill
	stp	x29, x30, [sp, #256]            ; 16-byte Folded Spill
	add	x29, sp, #256                   ; =256
	.cfi_def_cfa w29, 16
	.cfi_offset w30, -8
	.cfi_offset w29, -16
	.cfi_offset w19, -24
	.cfi_offset w20, -32
	.cfi_offset w21, -40
	.cfi_offset w22, -48
	mov	x20, x0
	mov	x19, x8
	mov	w0, #64
	bl	__Znwm
	str	x0, [sp, #104]
Lloh136:
	adrp	x8, lCPI12_0@PAGE
Lloh137:
	ldr	q0, [x8, lCPI12_0@PAGEOFF]
	stur	q0, [sp, #112]
Lloh138:
	adrp	x8, l_.str.31@PAGE
Lloh139:
	add	x8, x8, l_.str.31@PAGEOFF
	ldp	q0, q1, [x8]
	ldr	q2, [x8, #32]
	stp	q1, q2, [x0, #16]
	str	q0, [x0]
	mov	w8, #27745
	movk	w8, #23328, lsl #16
	stur	w8, [x0, #47]
	strb	wzr, [x0, #51]
	ldr	d0, [x20, #2520]
Ltmp154:
	add	x21, sp, #80                    ; =80
	add	x8, sp, #80                     ; =80
	bl	__ZNSt3__19to_stringEd
Ltmp155:
; %bb.1:
	ldrb	w8, [sp, #103]
	sxtb	w9, w8
	ldp	x10, x11, [sp, #80]
	cmp	w9, #0                          ; =0
	csel	x1, x10, x21, lt
	csel	x2, x11, x8, lt
Ltmp157:
	add	x0, sp, #104                    ; =104
	bl	__ZNSt3__112basic_stringIcNS_11char_traitsIcEENS_9allocatorIcEEE6appendEPKcm
Ltmp158:
; %bb.2:
	ldr	q0, [x0]
	ldr	x8, [x0, #16]
	str	x8, [sp, #144]
	str	q0, [sp, #128]
	stp	xzr, xzr, [x0, #8]
	str	xzr, [x0]
	mov	w8, #1
	strb	w8, [sp, #79]
	mov	w8, #44
	strh	w8, [sp, #56]
Ltmp160:
	add	x0, sp, #128                    ; =128
	add	x1, sp, #56                     ; =56
	mov	w2, #1
	bl	__ZNSt3__112basic_stringIcNS_11char_traitsIcEENS_9allocatorIcEEE6appendEPKcm
Ltmp161:
; %bb.3:
	sub	x21, x29, #96                   ; =96
	ldr	q0, [x0]
	ldr	x8, [x0, #16]
	stur	x8, [x29, #-80]
	str	q0, [x21]
	stp	xzr, xzr, [x0, #8]
	str	xzr, [x0]
	ldr	d0, [x20, #2528]
Ltmp163:
	add	x20, sp, #32                    ; =32
	add	x8, sp, #32                     ; =32
	bl	__ZNSt3__19to_stringEd
Ltmp164:
; %bb.4:
	ldrb	w8, [sp, #55]
	sxtb	w9, w8
	ldp	x10, x11, [sp, #32]
	cmp	w9, #0                          ; =0
	csel	x1, x10, x20, lt
	csel	x2, x11, x8, lt
Ltmp166:
	sub	x0, x29, #96                    ; =96
	bl	__ZNSt3__112basic_stringIcNS_11char_traitsIcEENS_9allocatorIcEEE6appendEPKcm
Ltmp167:
; %bb.5:
	ldr	q0, [x0]
	ldr	x8, [x0, #16]
	stur	x8, [x29, #-48]
	str	q0, [x21, #32]
	stp	xzr, xzr, [x0, #8]
	str	xzr, [x0]
	mov	w8, #1
	strb	w8, [sp, #31]
	mov	w8, #93
	strh	w8, [sp, #8]
Ltmp169:
	sub	x0, x29, #64                    ; =64
	add	x1, sp, #8                      ; =8
	mov	w2, #1
	bl	__ZNSt3__112basic_stringIcNS_11char_traitsIcEENS_9allocatorIcEEE6appendEPKcm
Ltmp170:
; %bb.6:
	ldr	q0, [x0]
	ldr	x8, [x0, #16]
	str	x8, [x19, #16]
	str	q0, [x19]
	stp	xzr, xzr, [x0, #8]
	str	xzr, [x0]
	ldrsb	w8, [sp, #31]
	tbnz	w8, #31, LBB12_15
; %bb.7:
	ldursb	w8, [x29, #-41]
	tbnz	w8, #31, LBB12_16
LBB12_8:
	ldrsb	w8, [sp, #55]
	tbnz	w8, #31, LBB12_17
LBB12_9:
	ldursb	w8, [x29, #-73]
	tbnz	w8, #31, LBB12_18
LBB12_10:
	ldrsb	w8, [sp, #79]
	tbnz	w8, #31, LBB12_19
LBB12_11:
	ldrsb	w8, [sp, #151]
	tbnz	w8, #31, LBB12_20
LBB12_12:
	ldrsb	w8, [sp, #103]
	tbnz	w8, #31, LBB12_21
LBB12_13:
	ldrsb	w8, [sp, #127]
	tbnz	w8, #31, LBB12_22
LBB12_14:
	ldp	x29, x30, [sp, #256]            ; 16-byte Folded Reload
	ldp	x20, x19, [sp, #240]            ; 16-byte Folded Reload
	ldp	x22, x21, [sp, #224]            ; 16-byte Folded Reload
	add	sp, sp, #272                    ; =272
	ret
LBB12_15:
	ldr	x0, [sp, #8]
	bl	__ZdlPv
	ldursb	w8, [x29, #-41]
	tbz	w8, #31, LBB12_8
LBB12_16:
	ldur	x0, [x29, #-64]
	bl	__ZdlPv
	ldrsb	w8, [sp, #55]
	tbz	w8, #31, LBB12_9
LBB12_17:
	ldr	x0, [sp, #32]
	bl	__ZdlPv
	ldursb	w8, [x29, #-73]
	tbz	w8, #31, LBB12_10
LBB12_18:
	ldur	x0, [x29, #-96]
	bl	__ZdlPv
	ldrsb	w8, [sp, #79]
	tbz	w8, #31, LBB12_11
LBB12_19:
	ldr	x0, [sp, #56]
	bl	__ZdlPv
	ldrsb	w8, [sp, #151]
	tbz	w8, #31, LBB12_12
LBB12_20:
	ldr	x0, [sp, #128]
	bl	__ZdlPv
	ldrsb	w8, [sp, #103]
	tbz	w8, #31, LBB12_13
LBB12_21:
	ldr	x0, [sp, #80]
	bl	__ZdlPv
	ldrsb	w8, [sp, #127]
	tbz	w8, #31, LBB12_14
LBB12_22:
	ldr	x0, [sp, #104]
	bl	__ZdlPv
	b	LBB12_14
LBB12_23:
Ltmp171:
	mov	x19, x0
	ldrsb	w8, [sp, #31]
	tbnz	w8, #31, LBB12_33
; %bb.24:
	ldursb	w8, [x29, #-41]
	tbnz	w8, #31, LBB12_34
LBB12_25:
	ldrsb	w8, [sp, #55]
	tbnz	w8, #31, LBB12_36
LBB12_26:
	ldursb	w8, [x29, #-73]
	tbnz	w8, #31, LBB12_38
LBB12_27:
	ldrsb	w8, [sp, #79]
	tbnz	w8, #31, LBB12_40
LBB12_28:
	ldrsb	w8, [sp, #151]
	tbnz	w8, #31, LBB12_41
LBB12_29:
	ldrsb	w8, [sp, #103]
	tbnz	w8, #31, LBB12_43
LBB12_30:
	ldrsb	w8, [sp, #127]
	tbz	w8, #31, LBB12_32
LBB12_31:
	ldr	x0, [sp, #104]
	bl	__ZdlPv
LBB12_32:
	mov	x0, x19
	bl	__Unwind_Resume
	brk	#0x1
LBB12_33:
	ldr	x0, [sp, #8]
	bl	__ZdlPv
	ldursb	w8, [x29, #-41]
	tbz	w8, #31, LBB12_25
LBB12_34:
	ldur	x0, [x29, #-64]
	bl	__ZdlPv
	ldrsb	w8, [sp, #55]
	tbz	w8, #31, LBB12_26
	b	LBB12_36
LBB12_35:
Ltmp168:
	mov	x19, x0
	ldrsb	w8, [sp, #55]
	tbz	w8, #31, LBB12_26
LBB12_36:
	ldr	x0, [sp, #32]
	bl	__ZdlPv
	ldursb	w8, [x29, #-73]
	tbz	w8, #31, LBB12_27
	b	LBB12_38
LBB12_37:
Ltmp165:
	mov	x19, x0
	ldursb	w8, [x29, #-73]
	tbz	w8, #31, LBB12_27
LBB12_38:
	ldur	x0, [x29, #-96]
	bl	__ZdlPv
	ldrsb	w8, [sp, #79]
	tbz	w8, #31, LBB12_28
	b	LBB12_40
LBB12_39:
Ltmp162:
	mov	x19, x0
	ldrsb	w8, [sp, #79]
	tbz	w8, #31, LBB12_28
LBB12_40:
	ldr	x0, [sp, #56]
	bl	__ZdlPv
	ldrsb	w8, [sp, #151]
	tbz	w8, #31, LBB12_29
LBB12_41:
	ldr	x0, [sp, #128]
	bl	__ZdlPv
	ldrsb	w8, [sp, #103]
	tbz	w8, #31, LBB12_30
	b	LBB12_43
LBB12_42:
Ltmp159:
	mov	x19, x0
	ldrsb	w8, [sp, #103]
	tbz	w8, #31, LBB12_30
LBB12_43:
	ldr	x0, [sp, #80]
	bl	__ZdlPv
	ldrsb	w8, [sp, #127]
	tbnz	w8, #31, LBB12_31
	b	LBB12_32
LBB12_44:
Ltmp156:
	mov	x19, x0
	ldrsb	w8, [sp, #127]
	tbnz	w8, #31, LBB12_31
	b	LBB12_32
	.loh AdrpAdd	Lloh138, Lloh139
	.loh AdrpAdrp	Lloh136, Lloh138
	.loh AdrpLdr	Lloh136, Lloh137
Lfunc_end7:
	.cfi_endproc
	.section	__TEXT,__gcc_except_tab
	.p2align	2
GCC_except_table12:
Lexception7:
	.byte	255                             ; @LPStart Encoding = omit
	.byte	255                             ; @TType Encoding = omit
	.byte	1                               ; Call site Encoding = uleb128
	.uleb128 Lcst_end7-Lcst_begin7
Lcst_begin7:
	.uleb128 Lfunc_begin7-Lfunc_begin7      ; >> Call Site 1 <<
	.uleb128 Ltmp154-Lfunc_begin7           ;   Call between Lfunc_begin7 and Ltmp154
	.byte	0                               ;     has no landing pad
	.byte	0                               ;   On action: cleanup
	.uleb128 Ltmp154-Lfunc_begin7           ; >> Call Site 2 <<
	.uleb128 Ltmp155-Ltmp154                ;   Call between Ltmp154 and Ltmp155
	.uleb128 Ltmp156-Lfunc_begin7           ;     jumps to Ltmp156
	.byte	0                               ;   On action: cleanup
	.uleb128 Ltmp157-Lfunc_begin7           ; >> Call Site 3 <<
	.uleb128 Ltmp158-Ltmp157                ;   Call between Ltmp157 and Ltmp158
	.uleb128 Ltmp159-Lfunc_begin7           ;     jumps to Ltmp159
	.byte	0                               ;   On action: cleanup
	.uleb128 Ltmp160-Lfunc_begin7           ; >> Call Site 4 <<
	.uleb128 Ltmp161-Ltmp160                ;   Call between Ltmp160 and Ltmp161
	.uleb128 Ltmp162-Lfunc_begin7           ;     jumps to Ltmp162
	.byte	0                               ;   On action: cleanup
	.uleb128 Ltmp163-Lfunc_begin7           ; >> Call Site 5 <<
	.uleb128 Ltmp164-Ltmp163                ;   Call between Ltmp163 and Ltmp164
	.uleb128 Ltmp165-Lfunc_begin7           ;     jumps to Ltmp165
	.byte	0                               ;   On action: cleanup
	.uleb128 Ltmp166-Lfunc_begin7           ; >> Call Site 6 <<
	.uleb128 Ltmp167-Ltmp166                ;   Call between Ltmp166 and Ltmp167
	.uleb128 Ltmp168-Lfunc_begin7           ;     jumps to Ltmp168
	.byte	0                               ;   On action: cleanup
	.uleb128 Ltmp169-Lfunc_begin7           ; >> Call Site 7 <<
	.uleb128 Ltmp170-Ltmp169                ;   Call between Ltmp169 and Ltmp170
	.uleb128 Ltmp171-Lfunc_begin7           ;     jumps to Ltmp171
	.byte	0                               ;   On action: cleanup
	.uleb128 Ltmp170-Lfunc_begin7           ; >> Call Site 8 <<
	.uleb128 Lfunc_end7-Ltmp170             ;   Call between Ltmp170 and Lfunc_end7
	.byte	0                               ;     has no landing pad
	.byte	0                               ;   On action: cleanup
Lcst_end7:
	.p2align	2
                                        ; -- End function
	.section	__TEXT,__text,regular,pure_instructions
	.globl	__ZN17uniform_generatorD1Ev     ; -- Begin function _ZN17uniform_generatorD1Ev
	.weak_def_can_be_hidden	__ZN17uniform_generatorD1Ev
	.p2align	2
__ZN17uniform_generatorD1Ev:            ; @_ZN17uniform_generatorD1Ev
	.cfi_startproc
; %bb.0:
	stp	x20, x19, [sp, #-32]!           ; 16-byte Folded Spill
	stp	x29, x30, [sp, #16]             ; 16-byte Folded Spill
	add	x29, sp, #16                    ; =16
	.cfi_def_cfa w29, 16
	.cfi_offset w30, -8
	.cfi_offset w29, -16
	.cfi_offset w19, -24
	.cfi_offset w20, -32
	mov	x19, x0
Lloh140:
	adrp	x8, __ZTV17uniform_generator@GOTPAGE
Lloh141:
	ldr	x8, [x8, __ZTV17uniform_generator@GOTPAGEOFF]
	add	x8, x8, #16                     ; =16
	str	x8, [x0], #8
	bl	__ZNSt3__113random_deviceD1Ev
	mov	x0, x19
	ldp	x29, x30, [sp, #16]             ; 16-byte Folded Reload
	ldp	x20, x19, [sp], #32             ; 16-byte Folded Reload
	ret
	.loh AdrpLdrGot	Lloh140, Lloh141
	.cfi_endproc
                                        ; -- End function
	.globl	__ZN17uniform_generatorD0Ev     ; -- Begin function _ZN17uniform_generatorD0Ev
	.weak_def_can_be_hidden	__ZN17uniform_generatorD0Ev
	.p2align	2
__ZN17uniform_generatorD0Ev:            ; @_ZN17uniform_generatorD0Ev
	.cfi_startproc
; %bb.0:
	stp	x20, x19, [sp, #-32]!           ; 16-byte Folded Spill
	stp	x29, x30, [sp, #16]             ; 16-byte Folded Spill
	add	x29, sp, #16                    ; =16
	.cfi_def_cfa w29, 16
	.cfi_offset w30, -8
	.cfi_offset w29, -16
	.cfi_offset w19, -24
	.cfi_offset w20, -32
	mov	x19, x0
Lloh142:
	adrp	x8, __ZTV17uniform_generator@GOTPAGE
Lloh143:
	ldr	x8, [x8, __ZTV17uniform_generator@GOTPAGEOFF]
	add	x8, x8, #16                     ; =16
	str	x8, [x0], #8
	bl	__ZNSt3__113random_deviceD1Ev
	mov	x0, x19
	ldp	x29, x30, [sp, #16]             ; 16-byte Folded Reload
	ldp	x20, x19, [sp], #32             ; 16-byte Folded Reload
	b	__ZdlPv
	.loh AdrpLdrGot	Lloh142, Lloh143
	.cfi_endproc
                                        ; -- End function
	.globl	__ZN15one_over_rand32C2Ev       ; -- Begin function _ZN15one_over_rand32C2Ev
	.weak_def_can_be_hidden	__ZN15one_over_rand32C2Ev
	.p2align	2
__ZN15one_over_rand32C2Ev:              ; @_ZN15one_over_rand32C2Ev
Lfunc_begin8:
	.cfi_startproc
	.cfi_personality 155, ___gxx_personality_v0
	.cfi_lsda 16, Lexception8
; %bb.0:
	sub	sp, sp, #64                     ; =64
	stp	x20, x19, [sp, #32]             ; 16-byte Folded Spill
	stp	x29, x30, [sp, #48]             ; 16-byte Folded Spill
	add	x29, sp, #48                    ; =48
	.cfi_def_cfa w29, 16
	.cfi_offset w30, -8
	.cfi_offset w29, -16
	.cfi_offset w19, -24
	.cfi_offset w20, -32
	mov	x19, x0
Lloh144:
	adrp	x8, __ZTV15one_over_rand32@GOTPAGE
Lloh145:
	ldr	x8, [x8, __ZTV15one_over_rand32@GOTPAGEOFF]
	add	x8, x8, #16                     ; =16
	mov	x20, x0
	str	x8, [x20], #8
	mov	w8, #12
	strb	w8, [sp, #31]
	mov	w8, #25710
	movk	w8, #28015, lsl #16
	str	w8, [sp, #16]
Lloh146:
	adrp	x8, l_.str.29@PAGE
Lloh147:
	add	x8, x8, l_.str.29@PAGEOFF
Lloh148:
	ldr	x8, [x8]
	str	x8, [sp, #8]
	strb	wzr, [sp, #20]
Ltmp172:
	add	x1, sp, #8                      ; =8
	mov	x0, x20
	bl	__ZNSt3__113random_deviceC1ERKNS_12basic_stringIcNS_11char_traitsIcEENS_9allocatorIcEEEE
Ltmp173:
; %bb.1:
	ldrsb	w8, [sp, #31]
	tbz	w8, #31, LBB15_3
; %bb.2:
	ldr	x0, [sp, #8]
	bl	__ZdlPv
LBB15_3:
Ltmp175:
	mov	x0, x20
	bl	__ZNSt3__113random_deviceclEv
Ltmp176:
; %bb.4:
	str	w0, [x19, #16]
	mov	w8, #1
	mov	w9, #5
	mov	w10, #35173
	movk	w10, #27655, lsl #16
LBB15_5:                                ; =>This Inner Loop Header: Depth=1
	eor	w11, w0, w0, lsr #30
	mul	w11, w11, w10
	add	w0, w11, w8
	add	w11, w9, w11
	sub	w11, w11, #4                    ; =4
	str	w11, [x19, x9, lsl #2]
	add	x8, x8, #1                      ; =1
	add	x9, x9, #1                      ; =1
	cmp	x9, #628                        ; =628
	b.ne	LBB15_5
; %bb.6:
	str	xzr, [x19, #2512]
	mov	x0, x19
	ldp	x29, x30, [sp, #48]             ; 16-byte Folded Reload
	ldp	x20, x19, [sp, #32]             ; 16-byte Folded Reload
	add	sp, sp, #64                     ; =64
	ret
LBB15_7:
Ltmp177:
	mov	x19, x0
	mov	x0, x20
	bl	__ZNSt3__113random_deviceD1Ev
	b	LBB15_10
LBB15_8:
Ltmp174:
	mov	x19, x0
	ldrsb	w8, [sp, #31]
	tbz	w8, #31, LBB15_10
; %bb.9:
	ldr	x0, [sp, #8]
	bl	__ZdlPv
LBB15_10:
	mov	x0, x19
	bl	__Unwind_Resume
	brk	#0x1
	.loh AdrpAddLdr	Lloh146, Lloh147, Lloh148
	.loh AdrpLdrGot	Lloh144, Lloh145
Lfunc_end8:
	.cfi_endproc
	.section	__TEXT,__gcc_except_tab
	.p2align	2
GCC_except_table15:
Lexception8:
	.byte	255                             ; @LPStart Encoding = omit
	.byte	255                             ; @TType Encoding = omit
	.byte	1                               ; Call site Encoding = uleb128
	.uleb128 Lcst_end8-Lcst_begin8
Lcst_begin8:
	.uleb128 Ltmp172-Lfunc_begin8           ; >> Call Site 1 <<
	.uleb128 Ltmp173-Ltmp172                ;   Call between Ltmp172 and Ltmp173
	.uleb128 Ltmp174-Lfunc_begin8           ;     jumps to Ltmp174
	.byte	0                               ;   On action: cleanup
	.uleb128 Ltmp175-Lfunc_begin8           ; >> Call Site 2 <<
	.uleb128 Ltmp176-Ltmp175                ;   Call between Ltmp175 and Ltmp176
	.uleb128 Ltmp177-Lfunc_begin8           ;     jumps to Ltmp177
	.byte	0                               ;   On action: cleanup
	.uleb128 Ltmp176-Lfunc_begin8           ; >> Call Site 3 <<
	.uleb128 Lfunc_end8-Ltmp176             ;   Call between Ltmp176 and Lfunc_end8
	.byte	0                               ;     has no landing pad
	.byte	0                               ;   On action: cleanup
Lcst_end8:
	.p2align	2
                                        ; -- End function
	.section	__TEXT,__text,regular,pure_instructions
	.globl	__ZN15one_over_rand3210new_stringEv ; -- Begin function _ZN15one_over_rand3210new_stringEv
	.weak_def_can_be_hidden	__ZN15one_over_rand3210new_stringEv
	.p2align	2
__ZN15one_over_rand3210new_stringEv:    ; @_ZN15one_over_rand3210new_stringEv
	.cfi_startproc
; %bb.0:
	mov	w9, #-272236544
	mov	w10, #22144
	movk	w10, #40236, lsl #16
	mov	w11, #45279
	movk	w11, #39176, lsl #16
	add	x14, x0, #16                    ; =16
	ldr	x15, [x0, #2512]
	add	x13, x15, #1                    ; =1
	lsr	x16, x13, #4
	mov	x12, #3361
	movk	x12, #8402, lsl #16
	movk	x12, #53773, lsl #32
	movk	x12, #3360, lsl #48
	umulh	x16, x16, x12
	lsr	x16, x16, #1
	mov	w17, #624
	msub	x13, x16, x17, x13
	lsl	x16, x15, #2
	ldr	w1, [x14, x16]
	and	w1, w1, #0x80000000
	ldr	w2, [x14, x13, lsl #2]
	and	w3, w2, #0x7ffffffe
	orr	w1, w3, w1
	add	x15, x15, #397                  ; =397
	lsr	x3, x15, #4
	umulh	x3, x3, x12
	lsr	x3, x3, #1
	msub	x15, x3, x17, x15
	ldr	w15, [x14, x15, lsl #2]
	and	w17, w2, #0x1
	mul	w17, w17, w11
	eor	w15, w17, w15
	eor	w15, w15, w1, lsr #1
	str	w15, [x14, x16]
	eor	w14, w15, w15, lsr #11
	str	x13, [x0, #2512]
	and	w15, w10, w14, lsl #7
	eor	w14, w15, w14
	and	w15, w9, w14, lsl #15
	eor	w14, w15, w14
	eor	w15, w14, w14, lsr #18
	cbnz	w15, LBB16_4
; %bb.1:
	mov	w14, #624
LBB16_2:                                ; =>This Inner Loop Header: Depth=1
	add	x15, x13, #1                    ; =1
	lsr	x16, x15, #4
	umulh	x16, x16, x12
	lsr	x16, x16, #1
	lsl	x17, x13, #2
	add	x1, x0, #16                     ; =16
	ldr	w2, [x1, x17]
	add	x3, x13, #397                   ; =397
	msub	x13, x16, x14, x15
	and	w15, w2, #0x80000000
	ldr	w16, [x1, x13, lsl #2]
	and	w2, w16, #0x7ffffffe
	orr	w15, w2, w15
	lsr	x2, x3, #4
	umulh	x2, x2, x12
	lsr	x2, x2, #1
	msub	x2, x2, x14, x3
	ldr	w2, [x1, x2, lsl #2]
	and	w16, w16, #0x1
	mul	w16, w16, w11
	eor	w16, w16, w2
	eor	w15, w16, w15, lsr #1
	str	w15, [x1, x17]
	eor	w15, w15, w15, lsr #11
	and	w16, w10, w15, lsl #7
	eor	w15, w16, w15
	and	w16, w9, w15, lsl #15
	eor	w15, w16, w15
	eor	w15, w15, w15, lsr #18
	cbz	w15, LBB16_2
; %bb.3:
	str	x13, [x0, #2512]
LBB16_4:
	ucvtf	d0, w15
	fmov	d1, #1.00000000
	fdiv	d0, d1, d0
	b	__ZNSt3__19to_stringEd
	.cfi_endproc
                                        ; -- End function
	.globl	__ZN15one_over_rand328describeEv ; -- Begin function _ZN15one_over_rand328describeEv
	.weak_def_can_be_hidden	__ZN15one_over_rand328describeEv
	.p2align	2
__ZN15one_over_rand328describeEv:       ; @_ZN15one_over_rand328describeEv
	.cfi_startproc
; %bb.0:
	mov	w9, #10
	strb	w9, [x8, #23]
	mov	w9, #10536
	strh	w9, [x8, #8]
Lloh149:
	adrp	x9, l_.str.34@PAGE
Lloh150:
	add	x9, x9, l_.str.34@PAGEOFF
Lloh151:
	ldr	x9, [x9]
	str	x9, [x8]
	strb	wzr, [x8, #10]
	ret
	.loh AdrpAddLdr	Lloh149, Lloh150, Lloh151
	.cfi_endproc
                                        ; -- End function
	.globl	__ZN15one_over_rand32D1Ev       ; -- Begin function _ZN15one_over_rand32D1Ev
	.weak_def_can_be_hidden	__ZN15one_over_rand32D1Ev
	.p2align	2
__ZN15one_over_rand32D1Ev:              ; @_ZN15one_over_rand32D1Ev
	.cfi_startproc
; %bb.0:
	stp	x20, x19, [sp, #-32]!           ; 16-byte Folded Spill
	stp	x29, x30, [sp, #16]             ; 16-byte Folded Spill
	add	x29, sp, #16                    ; =16
	.cfi_def_cfa w29, 16
	.cfi_offset w30, -8
	.cfi_offset w29, -16
	.cfi_offset w19, -24
	.cfi_offset w20, -32
	mov	x19, x0
Lloh152:
	adrp	x8, __ZTV15one_over_rand32@GOTPAGE
Lloh153:
	ldr	x8, [x8, __ZTV15one_over_rand32@GOTPAGEOFF]
	add	x8, x8, #16                     ; =16
	str	x8, [x0], #8
	bl	__ZNSt3__113random_deviceD1Ev
	mov	x0, x19
	ldp	x29, x30, [sp, #16]             ; 16-byte Folded Reload
	ldp	x20, x19, [sp], #32             ; 16-byte Folded Reload
	ret
	.loh AdrpLdrGot	Lloh152, Lloh153
	.cfi_endproc
                                        ; -- End function
	.globl	__ZN15one_over_rand32D0Ev       ; -- Begin function _ZN15one_over_rand32D0Ev
	.weak_def_can_be_hidden	__ZN15one_over_rand32D0Ev
	.p2align	2
__ZN15one_over_rand32D0Ev:              ; @_ZN15one_over_rand32D0Ev
	.cfi_startproc
; %bb.0:
	stp	x20, x19, [sp, #-32]!           ; 16-byte Folded Spill
	stp	x29, x30, [sp, #16]             ; 16-byte Folded Spill
	add	x29, sp, #16                    ; =16
	.cfi_def_cfa w29, 16
	.cfi_offset w30, -8
	.cfi_offset w29, -16
	.cfi_offset w19, -24
	.cfi_offset w20, -32
	mov	x19, x0
Lloh154:
	adrp	x8, __ZTV15one_over_rand32@GOTPAGE
Lloh155:
	ldr	x8, [x8, __ZTV15one_over_rand32@GOTPAGEOFF]
	add	x8, x8, #16                     ; =16
	str	x8, [x0], #8
	bl	__ZNSt3__113random_deviceD1Ev
	mov	x0, x19
	ldp	x29, x30, [sp, #16]             ; 16-byte Folded Reload
	ldp	x20, x19, [sp], #32             ; 16-byte Folded Reload
	b	__ZdlPv
	.loh AdrpLdrGot	Lloh154, Lloh155
	.cfi_endproc
                                        ; -- End function
	.globl	__ZN16simple_uniform32C2Ev      ; -- Begin function _ZN16simple_uniform32C2Ev
	.weak_def_can_be_hidden	__ZN16simple_uniform32C2Ev
	.p2align	2
__ZN16simple_uniform32C2Ev:             ; @_ZN16simple_uniform32C2Ev
Lfunc_begin9:
	.cfi_startproc
	.cfi_personality 155, ___gxx_personality_v0
	.cfi_lsda 16, Lexception9
; %bb.0:
	sub	sp, sp, #64                     ; =64
	stp	x20, x19, [sp, #32]             ; 16-byte Folded Spill
	stp	x29, x30, [sp, #48]             ; 16-byte Folded Spill
	add	x29, sp, #48                    ; =48
	.cfi_def_cfa w29, 16
	.cfi_offset w30, -8
	.cfi_offset w29, -16
	.cfi_offset w19, -24
	.cfi_offset w20, -32
	mov	x19, x0
Lloh156:
	adrp	x8, __ZTV16simple_uniform32@GOTPAGE
Lloh157:
	ldr	x8, [x8, __ZTV16simple_uniform32@GOTPAGEOFF]
	add	x8, x8, #16                     ; =16
	mov	x20, x0
	str	x8, [x20], #8
	mov	w8, #12
	strb	w8, [sp, #31]
	mov	w8, #25710
	movk	w8, #28015, lsl #16
	str	w8, [sp, #16]
Lloh158:
	adrp	x8, l_.str.29@PAGE
Lloh159:
	add	x8, x8, l_.str.29@PAGEOFF
Lloh160:
	ldr	x8, [x8]
	str	x8, [sp, #8]
	strb	wzr, [sp, #20]
Ltmp178:
	add	x1, sp, #8                      ; =8
	mov	x0, x20
	bl	__ZNSt3__113random_deviceC1ERKNS_12basic_stringIcNS_11char_traitsIcEENS_9allocatorIcEEEE
Ltmp179:
; %bb.1:
	ldrsb	w8, [sp, #31]
	tbz	w8, #31, LBB20_3
; %bb.2:
	ldr	x0, [sp, #8]
	bl	__ZdlPv
LBB20_3:
Ltmp181:
	mov	x0, x20
	bl	__ZNSt3__113random_deviceclEv
Ltmp182:
; %bb.4:
	str	w0, [x19, #16]
	mov	w8, #1
	mov	w9, #5
	mov	w10, #35173
	movk	w10, #27655, lsl #16
LBB20_5:                                ; =>This Inner Loop Header: Depth=1
	eor	w11, w0, w0, lsr #30
	mul	w11, w11, w10
	add	w0, w11, w8
	add	w11, w9, w11
	sub	w11, w11, #4                    ; =4
	str	w11, [x19, x9, lsl #2]
	add	x8, x8, #1                      ; =1
	add	x9, x9, #1                      ; =1
	cmp	x9, #628                        ; =628
	b.ne	LBB20_5
; %bb.6:
	str	xzr, [x19, #2512]
	mov	x0, x19
	ldp	x29, x30, [sp, #48]             ; 16-byte Folded Reload
	ldp	x20, x19, [sp, #32]             ; 16-byte Folded Reload
	add	sp, sp, #64                     ; =64
	ret
LBB20_7:
Ltmp183:
	mov	x19, x0
	mov	x0, x20
	bl	__ZNSt3__113random_deviceD1Ev
	b	LBB20_10
LBB20_8:
Ltmp180:
	mov	x19, x0
	ldrsb	w8, [sp, #31]
	tbz	w8, #31, LBB20_10
; %bb.9:
	ldr	x0, [sp, #8]
	bl	__ZdlPv
LBB20_10:
	mov	x0, x19
	bl	__Unwind_Resume
	brk	#0x1
	.loh AdrpAddLdr	Lloh158, Lloh159, Lloh160
	.loh AdrpLdrGot	Lloh156, Lloh157
Lfunc_end9:
	.cfi_endproc
	.section	__TEXT,__gcc_except_tab
	.p2align	2
GCC_except_table20:
Lexception9:
	.byte	255                             ; @LPStart Encoding = omit
	.byte	255                             ; @TType Encoding = omit
	.byte	1                               ; Call site Encoding = uleb128
	.uleb128 Lcst_end9-Lcst_begin9
Lcst_begin9:
	.uleb128 Ltmp178-Lfunc_begin9           ; >> Call Site 1 <<
	.uleb128 Ltmp179-Ltmp178                ;   Call between Ltmp178 and Ltmp179
	.uleb128 Ltmp180-Lfunc_begin9           ;     jumps to Ltmp180
	.byte	0                               ;   On action: cleanup
	.uleb128 Ltmp181-Lfunc_begin9           ; >> Call Site 2 <<
	.uleb128 Ltmp182-Ltmp181                ;   Call between Ltmp181 and Ltmp182
	.uleb128 Ltmp183-Lfunc_begin9           ;     jumps to Ltmp183
	.byte	0                               ;   On action: cleanup
	.uleb128 Ltmp182-Lfunc_begin9           ; >> Call Site 3 <<
	.uleb128 Lfunc_end9-Ltmp182             ;   Call between Ltmp182 and Lfunc_end9
	.byte	0                               ;     has no landing pad
	.byte	0                               ;   On action: cleanup
Lcst_end9:
	.p2align	2
                                        ; -- End function
	.section	__TEXT,__text,regular,pure_instructions
	.globl	__ZN16simple_uniform3210new_stringEv ; -- Begin function _ZN16simple_uniform3210new_stringEv
	.weak_def_can_be_hidden	__ZN16simple_uniform3210new_stringEv
	.p2align	2
__ZN16simple_uniform3210new_stringEv:   ; @_ZN16simple_uniform3210new_stringEv
	.cfi_startproc
; %bb.0:
	add	x9, x0, #16                     ; =16
	ldr	x10, [x0, #2512]
	add	x11, x10, #1                    ; =1
	lsr	x12, x11, #4
	mov	x13, #3361
	movk	x13, #8402, lsl #16
	movk	x13, #53773, lsl #32
	movk	x13, #3360, lsl #48
	umulh	x12, x12, x13
	lsr	x12, x12, #1
	mov	w14, #624
	lsl	x15, x10, #2
	ldr	w16, [x9, x15]
	msub	x11, x12, x14, x11
	and	w12, w16, #0x80000000
	ldr	w16, [x9, x11, lsl #2]
	add	x10, x10, #397                  ; =397
	lsr	x17, x10, #4
	umulh	x13, x17, x13
	and	w17, w16, #0x7ffffffe
	lsr	x13, x13, #1
	msub	x10, x13, x14, x10
	ldr	w10, [x9, x10, lsl #2]
	orr	w12, w17, w12
	and	w13, w16, #0x1
	mov	w14, #45279
	movk	w14, #39176, lsl #16
	mul	w13, w13, w14
	eor	w10, w13, w10
	eor	w10, w10, w12, lsr #1
	str	w10, [x9, x15]
	eor	w9, w10, w10, lsr #11
	mov	w10, #22144
	movk	w10, #40236, lsl #16
	and	w10, w10, w9, lsl #7
	eor	w9, w10, w9
	mov	w10, #-272236544
	and	w10, w10, w9, lsl #15
	eor	w9, w10, w9
	eor	w9, w9, w9, lsr #18
	ucvtf	d0, w9
	str	x11, [x0, #2512]
	mov	x9, #281474974613504
	movk	x9, #16879, lsl #48
	fmov	d1, x9
	fdiv	d0, d0, d1
	b	__ZNSt3__19to_stringEd
	.cfi_endproc
                                        ; -- End function
	.globl	__ZN16simple_uniform328describeEv ; -- Begin function _ZN16simple_uniform328describeEv
	.weak_def_can_be_hidden	__ZN16simple_uniform328describeEv
	.p2align	2
__ZN16simple_uniform328describeEv:      ; @_ZN16simple_uniform328describeEv
	.cfi_startproc
; %bb.0:
	mov	w9, #20
	strb	w9, [x8, #23]
	mov	w9, #17990
	movk	w9, #8262, lsl #16
	str	w9, [x8, #16]
Lloh161:
	adrp	x9, l_.str.35@PAGE
Lloh162:
	add	x9, x9, l_.str.35@PAGEOFF
Lloh163:
	ldr	q0, [x9]
	str	q0, [x8]
	strb	wzr, [x8, #20]
	ret
	.loh AdrpAddLdr	Lloh161, Lloh162, Lloh163
	.cfi_endproc
                                        ; -- End function
	.globl	__ZN16simple_uniform32D1Ev      ; -- Begin function _ZN16simple_uniform32D1Ev
	.weak_def_can_be_hidden	__ZN16simple_uniform32D1Ev
	.p2align	2
__ZN16simple_uniform32D1Ev:             ; @_ZN16simple_uniform32D1Ev
	.cfi_startproc
; %bb.0:
	stp	x20, x19, [sp, #-32]!           ; 16-byte Folded Spill
	stp	x29, x30, [sp, #16]             ; 16-byte Folded Spill
	add	x29, sp, #16                    ; =16
	.cfi_def_cfa w29, 16
	.cfi_offset w30, -8
	.cfi_offset w29, -16
	.cfi_offset w19, -24
	.cfi_offset w20, -32
	mov	x19, x0
Lloh164:
	adrp	x8, __ZTV16simple_uniform32@GOTPAGE
Lloh165:
	ldr	x8, [x8, __ZTV16simple_uniform32@GOTPAGEOFF]
	add	x8, x8, #16                     ; =16
	str	x8, [x0], #8
	bl	__ZNSt3__113random_deviceD1Ev
	mov	x0, x19
	ldp	x29, x30, [sp, #16]             ; 16-byte Folded Reload
	ldp	x20, x19, [sp], #32             ; 16-byte Folded Reload
	ret
	.loh AdrpLdrGot	Lloh164, Lloh165
	.cfi_endproc
                                        ; -- End function
	.globl	__ZN16simple_uniform32D0Ev      ; -- Begin function _ZN16simple_uniform32D0Ev
	.weak_def_can_be_hidden	__ZN16simple_uniform32D0Ev
	.p2align	2
__ZN16simple_uniform32D0Ev:             ; @_ZN16simple_uniform32D0Ev
	.cfi_startproc
; %bb.0:
	stp	x20, x19, [sp, #-32]!           ; 16-byte Folded Spill
	stp	x29, x30, [sp, #16]             ; 16-byte Folded Spill
	add	x29, sp, #16                    ; =16
	.cfi_def_cfa w29, 16
	.cfi_offset w30, -8
	.cfi_offset w29, -16
	.cfi_offset w19, -24
	.cfi_offset w20, -32
	mov	x19, x0
Lloh166:
	adrp	x8, __ZTV16simple_uniform32@GOTPAGE
Lloh167:
	ldr	x8, [x8, __ZTV16simple_uniform32@GOTPAGEOFF]
	add	x8, x8, #16                     ; =16
	str	x8, [x0], #8
	bl	__ZNSt3__113random_deviceD1Ev
	mov	x0, x19
	ldp	x29, x30, [sp, #16]             ; 16-byte Folded Reload
	ldp	x20, x19, [sp], #32             ; 16-byte Folded Reload
	b	__ZdlPv
	.loh AdrpLdrGot	Lloh166, Lloh167
	.cfi_endproc
                                        ; -- End function
	.globl	__ZN12simple_int32C2Ev          ; -- Begin function _ZN12simple_int32C2Ev
	.weak_def_can_be_hidden	__ZN12simple_int32C2Ev
	.p2align	2
__ZN12simple_int32C2Ev:                 ; @_ZN12simple_int32C2Ev
Lfunc_begin10:
	.cfi_startproc
	.cfi_personality 155, ___gxx_personality_v0
	.cfi_lsda 16, Lexception10
; %bb.0:
	sub	sp, sp, #64                     ; =64
	stp	x20, x19, [sp, #32]             ; 16-byte Folded Spill
	stp	x29, x30, [sp, #48]             ; 16-byte Folded Spill
	add	x29, sp, #48                    ; =48
	.cfi_def_cfa w29, 16
	.cfi_offset w30, -8
	.cfi_offset w29, -16
	.cfi_offset w19, -24
	.cfi_offset w20, -32
	mov	x19, x0
Lloh168:
	adrp	x8, __ZTV12simple_int32@GOTPAGE
Lloh169:
	ldr	x8, [x8, __ZTV12simple_int32@GOTPAGEOFF]
	add	x8, x8, #16                     ; =16
	mov	x20, x0
	str	x8, [x20], #8
	mov	w8, #12
	strb	w8, [sp, #31]
	mov	w8, #25710
	movk	w8, #28015, lsl #16
	str	w8, [sp, #16]
Lloh170:
	adrp	x8, l_.str.29@PAGE
Lloh171:
	add	x8, x8, l_.str.29@PAGEOFF
Lloh172:
	ldr	x8, [x8]
	str	x8, [sp, #8]
	strb	wzr, [sp, #20]
Ltmp184:
	add	x1, sp, #8                      ; =8
	mov	x0, x20
	bl	__ZNSt3__113random_deviceC1ERKNS_12basic_stringIcNS_11char_traitsIcEENS_9allocatorIcEEEE
Ltmp185:
; %bb.1:
	ldrsb	w8, [sp, #31]
	tbz	w8, #31, LBB25_3
; %bb.2:
	ldr	x0, [sp, #8]
	bl	__ZdlPv
LBB25_3:
Ltmp187:
	mov	x0, x20
	bl	__ZNSt3__113random_deviceclEv
Ltmp188:
; %bb.4:
	str	w0, [x19, #16]
	mov	w8, #1
	mov	w9, #5
	mov	w10, #35173
	movk	w10, #27655, lsl #16
LBB25_5:                                ; =>This Inner Loop Header: Depth=1
	eor	w11, w0, w0, lsr #30
	mul	w11, w11, w10
	add	w0, w11, w8
	add	w11, w9, w11
	sub	w11, w11, #4                    ; =4
	str	w11, [x19, x9, lsl #2]
	add	x8, x8, #1                      ; =1
	add	x9, x9, #1                      ; =1
	cmp	x9, #628                        ; =628
	b.ne	LBB25_5
; %bb.6:
	str	xzr, [x19, #2512]
	mov	x0, x19
	ldp	x29, x30, [sp, #48]             ; 16-byte Folded Reload
	ldp	x20, x19, [sp, #32]             ; 16-byte Folded Reload
	add	sp, sp, #64                     ; =64
	ret
LBB25_7:
Ltmp189:
	mov	x19, x0
	mov	x0, x20
	bl	__ZNSt3__113random_deviceD1Ev
	b	LBB25_10
LBB25_8:
Ltmp186:
	mov	x19, x0
	ldrsb	w8, [sp, #31]
	tbz	w8, #31, LBB25_10
; %bb.9:
	ldr	x0, [sp, #8]
	bl	__ZdlPv
LBB25_10:
	mov	x0, x19
	bl	__Unwind_Resume
	brk	#0x1
	.loh AdrpAddLdr	Lloh170, Lloh171, Lloh172
	.loh AdrpLdrGot	Lloh168, Lloh169
Lfunc_end10:
	.cfi_endproc
	.section	__TEXT,__gcc_except_tab
	.p2align	2
GCC_except_table25:
Lexception10:
	.byte	255                             ; @LPStart Encoding = omit
	.byte	255                             ; @TType Encoding = omit
	.byte	1                               ; Call site Encoding = uleb128
	.uleb128 Lcst_end10-Lcst_begin10
Lcst_begin10:
	.uleb128 Ltmp184-Lfunc_begin10          ; >> Call Site 1 <<
	.uleb128 Ltmp185-Ltmp184                ;   Call between Ltmp184 and Ltmp185
	.uleb128 Ltmp186-Lfunc_begin10          ;     jumps to Ltmp186
	.byte	0                               ;   On action: cleanup
	.uleb128 Ltmp187-Lfunc_begin10          ; >> Call Site 2 <<
	.uleb128 Ltmp188-Ltmp187                ;   Call between Ltmp187 and Ltmp188
	.uleb128 Ltmp189-Lfunc_begin10          ;     jumps to Ltmp189
	.byte	0                               ;   On action: cleanup
	.uleb128 Ltmp188-Lfunc_begin10          ; >> Call Site 3 <<
	.uleb128 Lfunc_end10-Ltmp188            ;   Call between Ltmp188 and Lfunc_end10
	.byte	0                               ;     has no landing pad
	.byte	0                               ;   On action: cleanup
Lcst_end10:
	.p2align	2
                                        ; -- End function
	.section	__TEXT,__text,regular,pure_instructions
	.globl	__ZN12simple_int3210new_stringEv ; -- Begin function _ZN12simple_int3210new_stringEv
	.weak_def_can_be_hidden	__ZN12simple_int3210new_stringEv
	.p2align	2
__ZN12simple_int3210new_stringEv:       ; @_ZN12simple_int3210new_stringEv
	.cfi_startproc
; %bb.0:
	add	x9, x0, #16                     ; =16
	ldr	x10, [x0, #2512]
	add	x11, x10, #1                    ; =1
	lsr	x12, x11, #4
	mov	x13, #3361
	movk	x13, #8402, lsl #16
	movk	x13, #53773, lsl #32
	movk	x13, #3360, lsl #48
	umulh	x12, x12, x13
	lsr	x12, x12, #1
	mov	w14, #624
	msub	x11, x12, x14, x11
	lsl	x12, x10, #2
	ldr	w15, [x9, x12]
	and	w15, w15, #0x80000000
	ldr	w16, [x9, x11, lsl #2]
	and	w17, w16, #0x7ffffffe
	orr	w15, w17, w15
	add	x10, x10, #397                  ; =397
	lsr	x17, x10, #4
	umulh	x13, x17, x13
	lsr	x13, x13, #1
	msub	x10, x13, x14, x10
	ldr	w10, [x9, x10, lsl #2]
	and	w13, w16, #0x1
	mov	w14, #45279
	movk	w14, #39176, lsl #16
	mul	w13, w13, w14
	eor	w10, w13, w10
	eor	w10, w10, w15, lsr #1
	str	w10, [x9, x12]
	eor	w9, w10, w10, lsr #11
	str	x11, [x0, #2512]
	mov	w10, #22144
	movk	w10, #40236, lsl #16
	and	w10, w10, w9, lsl #7
	eor	w9, w10, w9
	mov	w10, #-272236544
	and	w10, w10, w9, lsl #15
	eor	w9, w10, w9
	eor	w0, w9, w9, lsr #18
	b	__Z17integer_to_stringIjENSt3__112basic_stringIcNS0_11char_traitsIcEENS0_9allocatorIcEEEET_
	.cfi_endproc
                                        ; -- End function
	.globl	__ZN12simple_int328describeEv   ; -- Begin function _ZN12simple_int328describeEv
	.weak_def_can_be_hidden	__ZN12simple_int328describeEv
	.p2align	2
__ZN12simple_int328describeEv:          ; @_ZN12simple_int328describeEv
	.cfi_startproc
; %bb.0:
	mov	w9, #6
	strb	w9, [x8, #23]
	mov	w9, #24946
	movk	w9, #25710, lsl #16
	str	w9, [x8]
	mov	w9, #10536
	strh	w9, [x8, #4]
	strb	wzr, [x8, #6]
	ret
	.cfi_endproc
                                        ; -- End function
	.globl	__ZN12simple_int32D1Ev          ; -- Begin function _ZN12simple_int32D1Ev
	.weak_def_can_be_hidden	__ZN12simple_int32D1Ev
	.p2align	2
__ZN12simple_int32D1Ev:                 ; @_ZN12simple_int32D1Ev
	.cfi_startproc
; %bb.0:
	stp	x20, x19, [sp, #-32]!           ; 16-byte Folded Spill
	stp	x29, x30, [sp, #16]             ; 16-byte Folded Spill
	add	x29, sp, #16                    ; =16
	.cfi_def_cfa w29, 16
	.cfi_offset w30, -8
	.cfi_offset w29, -16
	.cfi_offset w19, -24
	.cfi_offset w20, -32
	mov	x19, x0
Lloh173:
	adrp	x8, __ZTV12simple_int32@GOTPAGE
Lloh174:
	ldr	x8, [x8, __ZTV12simple_int32@GOTPAGEOFF]
	add	x8, x8, #16                     ; =16
	str	x8, [x0], #8
	bl	__ZNSt3__113random_deviceD1Ev
	mov	x0, x19
	ldp	x29, x30, [sp, #16]             ; 16-byte Folded Reload
	ldp	x20, x19, [sp], #32             ; 16-byte Folded Reload
	ret
	.loh AdrpLdrGot	Lloh173, Lloh174
	.cfi_endproc
                                        ; -- End function
	.globl	__ZN12simple_int32D0Ev          ; -- Begin function _ZN12simple_int32D0Ev
	.weak_def_can_be_hidden	__ZN12simple_int32D0Ev
	.p2align	2
__ZN12simple_int32D0Ev:                 ; @_ZN12simple_int32D0Ev
	.cfi_startproc
; %bb.0:
	stp	x20, x19, [sp, #-32]!           ; 16-byte Folded Spill
	stp	x29, x30, [sp, #16]             ; 16-byte Folded Spill
	add	x29, sp, #16                    ; =16
	.cfi_def_cfa w29, 16
	.cfi_offset w30, -8
	.cfi_offset w29, -16
	.cfi_offset w19, -24
	.cfi_offset w20, -32
	mov	x19, x0
Lloh175:
	adrp	x8, __ZTV12simple_int32@GOTPAGE
Lloh176:
	ldr	x8, [x8, __ZTV12simple_int32@GOTPAGEOFF]
	add	x8, x8, #16                     ; =16
	str	x8, [x0], #8
	bl	__ZNSt3__113random_deviceD1Ev
	mov	x0, x19
	ldp	x29, x30, [sp, #16]             ; 16-byte Folded Reload
	ldp	x20, x19, [sp], #32             ; 16-byte Folded Reload
	b	__ZdlPv
	.loh AdrpLdrGot	Lloh175, Lloh176
	.cfi_endproc
                                        ; -- End function
	.globl	__Z17integer_to_stringIjENSt3__112basic_stringIcNS0_11char_traitsIcEENS0_9allocatorIcEEEET_ ; -- Begin function _Z17integer_to_stringIjENSt3__112basic_stringIcNS0_11char_traitsIcEENS0_9allocatorIcEEEET_
	.weak_def_can_be_hidden	__Z17integer_to_stringIjENSt3__112basic_stringIcNS0_11char_traitsIcEENS0_9allocatorIcEEEET_
	.p2align	2
__Z17integer_to_stringIjENSt3__112basic_stringIcNS0_11char_traitsIcEENS0_9allocatorIcEEEET_: ; @_Z17integer_to_stringIjENSt3__112basic_stringIcNS0_11char_traitsIcEENS0_9allocatorIcEEEET_
Lfunc_begin11:
	.cfi_startproc
	.cfi_personality 155, ___gxx_personality_v0
	.cfi_lsda 16, Lexception11
; %bb.0:
	sub	sp, sp, #368                    ; =368
	stp	x26, x25, [sp, #288]            ; 16-byte Folded Spill
	stp	x24, x23, [sp, #304]            ; 16-byte Folded Spill
	stp	x22, x21, [sp, #320]            ; 16-byte Folded Spill
	stp	x20, x19, [sp, #336]            ; 16-byte Folded Spill
	stp	x29, x30, [sp, #352]            ; 16-byte Folded Spill
	add	x29, sp, #352                   ; =352
	.cfi_def_cfa w29, 16
	.cfi_offset w30, -8
	.cfi_offset w29, -16
	.cfi_offset w19, -24
	.cfi_offset w20, -32
	.cfi_offset w21, -40
	.cfi_offset w22, -48
	.cfi_offset w23, -56
	.cfi_offset w24, -64
	.cfi_offset w25, -72
	.cfi_offset w26, -80
	mov	x22, x0
	mov	x21, x8
Lloh177:
	adrp	x23, __ZTVNSt3__118basic_stringstreamIcNS_11char_traitsIcEENS_9allocatorIcEEEE@GOTPAGE
Lloh178:
	ldr	x23, [x23, __ZTVNSt3__118basic_stringstreamIcNS_11char_traitsIcEENS_9allocatorIcEEEE@GOTPAGEOFF]
Lloh179:
	adrp	x8, __ZTCNSt3__118basic_stringstreamIcNS_11char_traitsIcEENS_9allocatorIcEEEE0_NS_13basic_istreamIcS2_EE@GOTPAGE
Lloh180:
	ldr	x8, [x8, __ZTCNSt3__118basic_stringstreamIcNS_11char_traitsIcEENS_9allocatorIcEEEE0_NS_13basic_istreamIcS2_EE@GOTPAGEOFF]
	add	x9, sp, #8                      ; =8
	add	x19, x9, #128                   ; =128
	add	x24, x23, #64                   ; =64
	add	x20, x9, #24                    ; =24
	add	x9, x8, #64                     ; =64
	stp	xzr, x24, [sp, #16]
	str	x9, [sp, #136]
	add	x8, x8, #24                     ; =24
	str	x8, [sp, #8]
Ltmp190:
	mov	x0, x19
	mov	x1, x20
	bl	__ZNSt3__18ios_base4initEPv
Ltmp191:
; %bb.1:
	mov	w8, #-1
	str	w8, [sp, #280]
	add	x8, x23, #24                    ; =24
	add	x9, x23, #104                   ; =104
	str	xzr, [sp, #272]
	str	x9, [sp, #136]
	str	x8, [sp, #8]
	str	x24, [sp, #24]
Ltmp193:
	mov	x0, x20
	bl	__ZNSt3__115basic_streambufIcNS_11char_traitsIcEEEC2Ev
Ltmp194:
; %bb.2:
Lloh181:
	adrp	x25, __ZTVNSt3__115basic_stringbufIcNS_11char_traitsIcEENS_9allocatorIcEEEE@GOTPAGE
Lloh182:
	ldr	x25, [x25, __ZTVNSt3__115basic_stringbufIcNS_11char_traitsIcEENS_9allocatorIcEEEE@GOTPAGEOFF]
	add	x24, x25, #16                   ; =16
	str	x24, [sp, #32]
	movi.2d	v0, #0000000000000000
	stp	q0, q0, [sp, #96]
	mov	w8, #24
	str	w8, [sp, #128]
	add	x8, sp, #8                      ; =8
	add	x0, x8, #16                     ; =16
Ltmp196:
	mov	x1, x22
	bl	__ZNSt3__113basic_ostreamIcNS_11char_traitsIcEEElsEj
Ltmp197:
; %bb.3:
Ltmp198:
	mov	x8, x21
	mov	x0, x20
	bl	__ZNKSt3__115basic_stringbufIcNS_11char_traitsIcEENS_9allocatorIcEEE3strEv
Ltmp199:
; %bb.4:
	add	x8, x23, #24                    ; =24
	add	x9, x23, #104                   ; =104
	add	x10, x23, #64                   ; =64
	str	x8, [sp, #8]
	add	x8, x25, #16                    ; =16
	str	x9, [sp, #136]
	stp	x10, x8, [sp, #24]
	ldrsb	w8, [sp, #119]
	tbz	w8, #31, LBB30_6
; %bb.5:
	ldr	x0, [sp, #96]
	bl	__ZdlPv
LBB30_6:
	mov	x0, x20
	bl	__ZNSt3__115basic_streambufIcNS_11char_traitsIcEEED2Ev
Lloh183:
	adrp	x8, __ZTTNSt3__118basic_stringstreamIcNS_11char_traitsIcEENS_9allocatorIcEEEE@GOTPAGE
Lloh184:
	ldr	x8, [x8, __ZTTNSt3__118basic_stringstreamIcNS_11char_traitsIcEENS_9allocatorIcEEEE@GOTPAGEOFF]
	add	x1, x8, #8                      ; =8
	add	x0, sp, #8                      ; =8
	bl	__ZNSt3__114basic_iostreamIcNS_11char_traitsIcEEED2Ev
	mov	x0, x19
	bl	__ZNSt3__19basic_iosIcNS_11char_traitsIcEEED2Ev
	ldp	x29, x30, [sp, #352]            ; 16-byte Folded Reload
	ldp	x20, x19, [sp, #336]            ; 16-byte Folded Reload
	ldp	x22, x21, [sp, #320]            ; 16-byte Folded Reload
	ldp	x24, x23, [sp, #304]            ; 16-byte Folded Reload
	ldp	x26, x25, [sp, #288]            ; 16-byte Folded Reload
	add	sp, sp, #368                    ; =368
	ret
LBB30_7:
Ltmp195:
	mov	x21, x0
	b	LBB30_12
LBB30_8:
Ltmp192:
	mov	x21, x0
	b	LBB30_13
LBB30_9:
Ltmp200:
	mov	x21, x0
	add	x8, x23, #24                    ; =24
	add	x9, x23, #104                   ; =104
	add	x10, x23, #64                   ; =64
	str	x8, [sp, #8]
	stp	x10, x24, [sp, #24]
	str	x9, [sp, #136]
	ldrsb	w8, [sp, #119]
	tbz	w8, #31, LBB30_11
; %bb.10:
	ldr	x0, [sp, #96]
	bl	__ZdlPv
LBB30_11:
	mov	x0, x20
	bl	__ZNSt3__115basic_streambufIcNS_11char_traitsIcEEED2Ev
LBB30_12:
Lloh185:
	adrp	x8, __ZTTNSt3__118basic_stringstreamIcNS_11char_traitsIcEENS_9allocatorIcEEEE@GOTPAGE
Lloh186:
	ldr	x8, [x8, __ZTTNSt3__118basic_stringstreamIcNS_11char_traitsIcEENS_9allocatorIcEEEE@GOTPAGEOFF]
	add	x1, x8, #8                      ; =8
	add	x0, sp, #8                      ; =8
	bl	__ZNSt3__114basic_iostreamIcNS_11char_traitsIcEEED2Ev
LBB30_13:
	mov	x0, x19
	bl	__ZNSt3__19basic_iosIcNS_11char_traitsIcEEED2Ev
	mov	x0, x21
	bl	__Unwind_Resume
	brk	#0x1
	.loh AdrpLdrGot	Lloh179, Lloh180
	.loh AdrpLdrGot	Lloh177, Lloh178
	.loh AdrpLdrGot	Lloh181, Lloh182
	.loh AdrpLdrGot	Lloh183, Lloh184
	.loh AdrpLdrGot	Lloh185, Lloh186
Lfunc_end11:
	.cfi_endproc
	.section	__TEXT,__gcc_except_tab
	.p2align	2
GCC_except_table30:
Lexception11:
	.byte	255                             ; @LPStart Encoding = omit
	.byte	255                             ; @TType Encoding = omit
	.byte	1                               ; Call site Encoding = uleb128
	.uleb128 Lcst_end11-Lcst_begin11
Lcst_begin11:
	.uleb128 Ltmp190-Lfunc_begin11          ; >> Call Site 1 <<
	.uleb128 Ltmp191-Ltmp190                ;   Call between Ltmp190 and Ltmp191
	.uleb128 Ltmp192-Lfunc_begin11          ;     jumps to Ltmp192
	.byte	0                               ;   On action: cleanup
	.uleb128 Ltmp193-Lfunc_begin11          ; >> Call Site 2 <<
	.uleb128 Ltmp194-Ltmp193                ;   Call between Ltmp193 and Ltmp194
	.uleb128 Ltmp195-Lfunc_begin11          ;     jumps to Ltmp195
	.byte	0                               ;   On action: cleanup
	.uleb128 Ltmp196-Lfunc_begin11          ; >> Call Site 3 <<
	.uleb128 Ltmp199-Ltmp196                ;   Call between Ltmp196 and Ltmp199
	.uleb128 Ltmp200-Lfunc_begin11          ;     jumps to Ltmp200
	.byte	0                               ;   On action: cleanup
	.uleb128 Ltmp199-Lfunc_begin11          ; >> Call Site 4 <<
	.uleb128 Lfunc_end11-Ltmp199            ;   Call between Ltmp199 and Lfunc_end11
	.byte	0                               ;     has no landing pad
	.byte	0                               ;   On action: cleanup
Lcst_end11:
	.p2align	2
                                        ; -- End function
	.section	__TEXT,__text,regular,pure_instructions
	.globl	__ZNSt3__118basic_stringstreamIcNS_11char_traitsIcEENS_9allocatorIcEEED1Ev ; -- Begin function _ZNSt3__118basic_stringstreamIcNS_11char_traitsIcEENS_9allocatorIcEEED1Ev
	.weak_def_can_be_hidden	__ZNSt3__118basic_stringstreamIcNS_11char_traitsIcEENS_9allocatorIcEEED1Ev
	.p2align	2
__ZNSt3__118basic_stringstreamIcNS_11char_traitsIcEENS_9allocatorIcEEED1Ev: ; @_ZNSt3__118basic_stringstreamIcNS_11char_traitsIcEENS_9allocatorIcEEED1Ev
	.cfi_startproc
; %bb.0:
	stp	x22, x21, [sp, #-48]!           ; 16-byte Folded Spill
	stp	x20, x19, [sp, #16]             ; 16-byte Folded Spill
	stp	x29, x30, [sp, #32]             ; 16-byte Folded Spill
	add	x29, sp, #32                    ; =32
	.cfi_def_cfa w29, 16
	.cfi_offset w30, -8
	.cfi_offset w29, -16
	.cfi_offset w19, -24
	.cfi_offset w20, -32
	.cfi_offset w21, -40
	.cfi_offset w22, -48
	mov	x19, x0
Lloh187:
	adrp	x8, __ZTVNSt3__118basic_stringstreamIcNS_11char_traitsIcEENS_9allocatorIcEEEE@GOTPAGE
Lloh188:
	ldr	x8, [x8, __ZTVNSt3__118basic_stringstreamIcNS_11char_traitsIcEENS_9allocatorIcEEEE@GOTPAGEOFF]
	add	x9, x8, #24                     ; =24
	str	x9, [x0]
	add	x9, x8, #104                    ; =104
	mov	x20, x0
	str	x9, [x20, #128]!
	add	x8, x8, #64                     ; =64
Lloh189:
	adrp	x9, __ZTVNSt3__115basic_stringbufIcNS_11char_traitsIcEENS_9allocatorIcEEEE@GOTPAGE
Lloh190:
	ldr	x9, [x9, __ZTVNSt3__115basic_stringbufIcNS_11char_traitsIcEENS_9allocatorIcEEEE@GOTPAGEOFF]
	str	x8, [x0, #16]
	add	x8, x9, #16                     ; =16
	mov	x21, x0
	str	x8, [x21, #24]!
	ldrsb	w8, [x0, #111]
	tbz	w8, #31, LBB31_2
; %bb.1:
	ldr	x0, [x19, #88]
	bl	__ZdlPv
LBB31_2:
	mov	x0, x21
	bl	__ZNSt3__115basic_streambufIcNS_11char_traitsIcEEED2Ev
Lloh191:
	adrp	x8, __ZTTNSt3__118basic_stringstreamIcNS_11char_traitsIcEENS_9allocatorIcEEEE@GOTPAGE
Lloh192:
	ldr	x8, [x8, __ZTTNSt3__118basic_stringstreamIcNS_11char_traitsIcEENS_9allocatorIcEEEE@GOTPAGEOFF]
	add	x1, x8, #8                      ; =8
	mov	x0, x19
	bl	__ZNSt3__114basic_iostreamIcNS_11char_traitsIcEEED2Ev
	mov	x0, x20
	bl	__ZNSt3__19basic_iosIcNS_11char_traitsIcEEED2Ev
	mov	x0, x19
	ldp	x29, x30, [sp, #32]             ; 16-byte Folded Reload
	ldp	x20, x19, [sp, #16]             ; 16-byte Folded Reload
	ldp	x22, x21, [sp], #48             ; 16-byte Folded Reload
	ret
	.loh AdrpLdrGot	Lloh189, Lloh190
	.loh AdrpLdrGot	Lloh187, Lloh188
	.loh AdrpLdrGot	Lloh191, Lloh192
	.cfi_endproc
                                        ; -- End function
	.globl	__ZNSt3__118basic_stringstreamIcNS_11char_traitsIcEENS_9allocatorIcEEED0Ev ; -- Begin function _ZNSt3__118basic_stringstreamIcNS_11char_traitsIcEENS_9allocatorIcEEED0Ev
	.weak_def_can_be_hidden	__ZNSt3__118basic_stringstreamIcNS_11char_traitsIcEENS_9allocatorIcEEED0Ev
	.p2align	2
__ZNSt3__118basic_stringstreamIcNS_11char_traitsIcEENS_9allocatorIcEEED0Ev: ; @_ZNSt3__118basic_stringstreamIcNS_11char_traitsIcEENS_9allocatorIcEEED0Ev
	.cfi_startproc
; %bb.0:
	stp	x22, x21, [sp, #-48]!           ; 16-byte Folded Spill
	stp	x20, x19, [sp, #16]             ; 16-byte Folded Spill
	stp	x29, x30, [sp, #32]             ; 16-byte Folded Spill
	add	x29, sp, #32                    ; =32
	.cfi_def_cfa w29, 16
	.cfi_offset w30, -8
	.cfi_offset w29, -16
	.cfi_offset w19, -24
	.cfi_offset w20, -32
	.cfi_offset w21, -40
	.cfi_offset w22, -48
	mov	x19, x0
Lloh193:
	adrp	x8, __ZTVNSt3__118basic_stringstreamIcNS_11char_traitsIcEENS_9allocatorIcEEEE@GOTPAGE
Lloh194:
	ldr	x8, [x8, __ZTVNSt3__118basic_stringstreamIcNS_11char_traitsIcEENS_9allocatorIcEEEE@GOTPAGEOFF]
	add	x9, x8, #24                     ; =24
	str	x9, [x0]
	add	x9, x8, #104                    ; =104
	mov	x20, x0
	str	x9, [x20, #128]!
	add	x8, x8, #64                     ; =64
Lloh195:
	adrp	x9, __ZTVNSt3__115basic_stringbufIcNS_11char_traitsIcEENS_9allocatorIcEEEE@GOTPAGE
Lloh196:
	ldr	x9, [x9, __ZTVNSt3__115basic_stringbufIcNS_11char_traitsIcEENS_9allocatorIcEEEE@GOTPAGEOFF]
	str	x8, [x0, #16]
	add	x8, x9, #16                     ; =16
	mov	x21, x0
	str	x8, [x21, #24]!
	ldrsb	w8, [x0, #111]
	tbz	w8, #31, LBB32_2
; %bb.1:
	ldr	x0, [x19, #88]
	bl	__ZdlPv
LBB32_2:
	mov	x0, x21
	bl	__ZNSt3__115basic_streambufIcNS_11char_traitsIcEEED2Ev
Lloh197:
	adrp	x8, __ZTTNSt3__118basic_stringstreamIcNS_11char_traitsIcEENS_9allocatorIcEEEE@GOTPAGE
Lloh198:
	ldr	x8, [x8, __ZTTNSt3__118basic_stringstreamIcNS_11char_traitsIcEENS_9allocatorIcEEEE@GOTPAGEOFF]
	add	x1, x8, #8                      ; =8
	mov	x0, x19
	bl	__ZNSt3__114basic_iostreamIcNS_11char_traitsIcEEED2Ev
	mov	x0, x20
	bl	__ZNSt3__19basic_iosIcNS_11char_traitsIcEEED2Ev
	mov	x0, x19
	ldp	x29, x30, [sp, #32]             ; 16-byte Folded Reload
	ldp	x20, x19, [sp, #16]             ; 16-byte Folded Reload
	ldp	x22, x21, [sp], #48             ; 16-byte Folded Reload
	b	__ZdlPv
	.loh AdrpLdrGot	Lloh195, Lloh196
	.loh AdrpLdrGot	Lloh193, Lloh194
	.loh AdrpLdrGot	Lloh197, Lloh198
	.cfi_endproc
                                        ; -- End function
	.globl	__ZThn16_NSt3__118basic_stringstreamIcNS_11char_traitsIcEENS_9allocatorIcEEED1Ev ; -- Begin function _ZThn16_NSt3__118basic_stringstreamIcNS_11char_traitsIcEENS_9allocatorIcEEED1Ev
	.weak_def_can_be_hidden	__ZThn16_NSt3__118basic_stringstreamIcNS_11char_traitsIcEENS_9allocatorIcEEED1Ev
	.p2align	2
__ZThn16_NSt3__118basic_stringstreamIcNS_11char_traitsIcEENS_9allocatorIcEEED1Ev: ; @_ZThn16_NSt3__118basic_stringstreamIcNS_11char_traitsIcEENS_9allocatorIcEEED1Ev
	.cfi_startproc
; %bb.0:
	stp	x22, x21, [sp, #-48]!           ; 16-byte Folded Spill
	stp	x20, x19, [sp, #16]             ; 16-byte Folded Spill
	stp	x29, x30, [sp, #32]             ; 16-byte Folded Spill
	add	x29, sp, #32                    ; =32
	.cfi_def_cfa w29, 16
	.cfi_offset w30, -8
	.cfi_offset w29, -16
	.cfi_offset w19, -24
	.cfi_offset w20, -32
	.cfi_offset w21, -40
	.cfi_offset w22, -48
Lloh199:
	adrp	x8, __ZTVNSt3__118basic_stringstreamIcNS_11char_traitsIcEENS_9allocatorIcEEEE@GOTPAGE
Lloh200:
	ldr	x8, [x8, __ZTVNSt3__118basic_stringstreamIcNS_11char_traitsIcEENS_9allocatorIcEEEE@GOTPAGEOFF]
	add	x9, x8, #24                     ; =24
	mov	x20, x0
	str	x9, [x20, #-16]!
	add	x9, x8, #104                    ; =104
	mov	x19, x0
	str	x9, [x19, #112]!
	add	x8, x8, #64                     ; =64
Lloh201:
	adrp	x9, __ZTVNSt3__115basic_stringbufIcNS_11char_traitsIcEENS_9allocatorIcEEEE@GOTPAGE
Lloh202:
	ldr	x9, [x9, __ZTVNSt3__115basic_stringbufIcNS_11char_traitsIcEENS_9allocatorIcEEEE@GOTPAGEOFF]
	str	x8, [x0]
	add	x8, x9, #16                     ; =16
	mov	x21, x0
	str	x8, [x21, #8]!
	ldrsb	w8, [x0, #95]
	tbz	w8, #31, LBB33_2
; %bb.1:
	ldr	x0, [x20, #88]
	bl	__ZdlPv
LBB33_2:
	mov	x0, x21
	bl	__ZNSt3__115basic_streambufIcNS_11char_traitsIcEEED2Ev
Lloh203:
	adrp	x8, __ZTTNSt3__118basic_stringstreamIcNS_11char_traitsIcEENS_9allocatorIcEEEE@GOTPAGE
Lloh204:
	ldr	x8, [x8, __ZTTNSt3__118basic_stringstreamIcNS_11char_traitsIcEENS_9allocatorIcEEEE@GOTPAGEOFF]
	add	x1, x8, #8                      ; =8
	mov	x0, x20
	bl	__ZNSt3__114basic_iostreamIcNS_11char_traitsIcEEED2Ev
	mov	x0, x19
	ldp	x29, x30, [sp, #32]             ; 16-byte Folded Reload
	ldp	x20, x19, [sp, #16]             ; 16-byte Folded Reload
	ldp	x22, x21, [sp], #48             ; 16-byte Folded Reload
	b	__ZNSt3__19basic_iosIcNS_11char_traitsIcEEED2Ev
	.loh AdrpLdrGot	Lloh201, Lloh202
	.loh AdrpLdrGot	Lloh199, Lloh200
	.loh AdrpLdrGot	Lloh203, Lloh204
	.cfi_endproc
                                        ; -- End function
	.globl	__ZThn16_NSt3__118basic_stringstreamIcNS_11char_traitsIcEENS_9allocatorIcEEED0Ev ; -- Begin function _ZThn16_NSt3__118basic_stringstreamIcNS_11char_traitsIcEENS_9allocatorIcEEED0Ev
	.weak_def_can_be_hidden	__ZThn16_NSt3__118basic_stringstreamIcNS_11char_traitsIcEENS_9allocatorIcEEED0Ev
	.p2align	2
__ZThn16_NSt3__118basic_stringstreamIcNS_11char_traitsIcEENS_9allocatorIcEEED0Ev: ; @_ZThn16_NSt3__118basic_stringstreamIcNS_11char_traitsIcEENS_9allocatorIcEEED0Ev
	.cfi_startproc
; %bb.0:
	stp	x22, x21, [sp, #-48]!           ; 16-byte Folded Spill
	stp	x20, x19, [sp, #16]             ; 16-byte Folded Spill
	stp	x29, x30, [sp, #32]             ; 16-byte Folded Spill
	add	x29, sp, #32                    ; =32
	.cfi_def_cfa w29, 16
	.cfi_offset w30, -8
	.cfi_offset w29, -16
	.cfi_offset w19, -24
	.cfi_offset w20, -32
	.cfi_offset w21, -40
	.cfi_offset w22, -48
Lloh205:
	adrp	x8, __ZTVNSt3__118basic_stringstreamIcNS_11char_traitsIcEENS_9allocatorIcEEEE@GOTPAGE
Lloh206:
	ldr	x8, [x8, __ZTVNSt3__118basic_stringstreamIcNS_11char_traitsIcEENS_9allocatorIcEEEE@GOTPAGEOFF]
	add	x9, x8, #24                     ; =24
	mov	x19, x0
	str	x9, [x19, #-16]!
	add	x9, x8, #104                    ; =104
	mov	x20, x0
	str	x9, [x20, #112]!
	add	x8, x8, #64                     ; =64
Lloh207:
	adrp	x9, __ZTVNSt3__115basic_stringbufIcNS_11char_traitsIcEENS_9allocatorIcEEEE@GOTPAGE
Lloh208:
	ldr	x9, [x9, __ZTVNSt3__115basic_stringbufIcNS_11char_traitsIcEENS_9allocatorIcEEEE@GOTPAGEOFF]
	str	x8, [x0]
	add	x8, x9, #16                     ; =16
	mov	x21, x0
	str	x8, [x21, #8]!
	ldrsb	w8, [x0, #95]
	tbz	w8, #31, LBB34_2
; %bb.1:
	ldr	x0, [x19, #88]
	bl	__ZdlPv
LBB34_2:
	mov	x0, x21
	bl	__ZNSt3__115basic_streambufIcNS_11char_traitsIcEEED2Ev
Lloh209:
	adrp	x8, __ZTTNSt3__118basic_stringstreamIcNS_11char_traitsIcEENS_9allocatorIcEEEE@GOTPAGE
Lloh210:
	ldr	x8, [x8, __ZTTNSt3__118basic_stringstreamIcNS_11char_traitsIcEENS_9allocatorIcEEEE@GOTPAGEOFF]
	add	x1, x8, #8                      ; =8
	mov	x0, x19
	bl	__ZNSt3__114basic_iostreamIcNS_11char_traitsIcEEED2Ev
	mov	x0, x20
	bl	__ZNSt3__19basic_iosIcNS_11char_traitsIcEEED2Ev
	mov	x0, x19
	ldp	x29, x30, [sp, #32]             ; 16-byte Folded Reload
	ldp	x20, x19, [sp, #16]             ; 16-byte Folded Reload
	ldp	x22, x21, [sp], #48             ; 16-byte Folded Reload
	b	__ZdlPv
	.loh AdrpLdrGot	Lloh207, Lloh208
	.loh AdrpLdrGot	Lloh205, Lloh206
	.loh AdrpLdrGot	Lloh209, Lloh210
	.cfi_endproc
                                        ; -- End function
	.globl	__ZTv0_n24_NSt3__118basic_stringstreamIcNS_11char_traitsIcEENS_9allocatorIcEEED1Ev ; -- Begin function _ZTv0_n24_NSt3__118basic_stringstreamIcNS_11char_traitsIcEENS_9allocatorIcEEED1Ev
	.weak_def_can_be_hidden	__ZTv0_n24_NSt3__118basic_stringstreamIcNS_11char_traitsIcEENS_9allocatorIcEEED1Ev
	.p2align	2
__ZTv0_n24_NSt3__118basic_stringstreamIcNS_11char_traitsIcEENS_9allocatorIcEEED1Ev: ; @_ZTv0_n24_NSt3__118basic_stringstreamIcNS_11char_traitsIcEENS_9allocatorIcEEED1Ev
	.cfi_startproc
; %bb.0:
	stp	x22, x21, [sp, #-48]!           ; 16-byte Folded Spill
	stp	x20, x19, [sp, #16]             ; 16-byte Folded Spill
	stp	x29, x30, [sp, #32]             ; 16-byte Folded Spill
	add	x29, sp, #32                    ; =32
	.cfi_def_cfa w29, 16
	.cfi_offset w30, -8
	.cfi_offset w29, -16
	.cfi_offset w19, -24
	.cfi_offset w20, -32
	.cfi_offset w21, -40
	.cfi_offset w22, -48
	ldr	x8, [x0]
	ldur	x8, [x8, #-24]
	add	x19, x0, x8
Lloh211:
	adrp	x8, __ZTVNSt3__118basic_stringstreamIcNS_11char_traitsIcEENS_9allocatorIcEEEE@GOTPAGE
Lloh212:
	ldr	x8, [x8, __ZTVNSt3__118basic_stringstreamIcNS_11char_traitsIcEENS_9allocatorIcEEEE@GOTPAGEOFF]
	add	x9, x8, #24                     ; =24
	str	x9, [x19]
	add	x9, x8, #104                    ; =104
	mov	x20, x19
	str	x9, [x20, #128]!
	add	x8, x8, #64                     ; =64
Lloh213:
	adrp	x9, __ZTVNSt3__115basic_stringbufIcNS_11char_traitsIcEENS_9allocatorIcEEEE@GOTPAGE
Lloh214:
	ldr	x9, [x9, __ZTVNSt3__115basic_stringbufIcNS_11char_traitsIcEENS_9allocatorIcEEEE@GOTPAGEOFF]
	str	x8, [x19, #16]
	add	x8, x9, #16                     ; =16
	mov	x21, x19
	str	x8, [x21, #24]!
	ldrsb	w8, [x19, #111]
	tbz	w8, #31, LBB35_2
; %bb.1:
	ldr	x0, [x19, #88]
	bl	__ZdlPv
LBB35_2:
	mov	x0, x21
	bl	__ZNSt3__115basic_streambufIcNS_11char_traitsIcEEED2Ev
Lloh215:
	adrp	x8, __ZTTNSt3__118basic_stringstreamIcNS_11char_traitsIcEENS_9allocatorIcEEEE@GOTPAGE
Lloh216:
	ldr	x8, [x8, __ZTTNSt3__118basic_stringstreamIcNS_11char_traitsIcEENS_9allocatorIcEEEE@GOTPAGEOFF]
	add	x1, x8, #8                      ; =8
	mov	x0, x19
	bl	__ZNSt3__114basic_iostreamIcNS_11char_traitsIcEEED2Ev
	mov	x0, x20
	ldp	x29, x30, [sp, #32]             ; 16-byte Folded Reload
	ldp	x20, x19, [sp, #16]             ; 16-byte Folded Reload
	ldp	x22, x21, [sp], #48             ; 16-byte Folded Reload
	b	__ZNSt3__19basic_iosIcNS_11char_traitsIcEEED2Ev
	.loh AdrpLdrGot	Lloh213, Lloh214
	.loh AdrpLdrGot	Lloh211, Lloh212
	.loh AdrpLdrGot	Lloh215, Lloh216
	.cfi_endproc
                                        ; -- End function
	.globl	__ZTv0_n24_NSt3__118basic_stringstreamIcNS_11char_traitsIcEENS_9allocatorIcEEED0Ev ; -- Begin function _ZTv0_n24_NSt3__118basic_stringstreamIcNS_11char_traitsIcEENS_9allocatorIcEEED0Ev
	.weak_def_can_be_hidden	__ZTv0_n24_NSt3__118basic_stringstreamIcNS_11char_traitsIcEENS_9allocatorIcEEED0Ev
	.p2align	2
__ZTv0_n24_NSt3__118basic_stringstreamIcNS_11char_traitsIcEENS_9allocatorIcEEED0Ev: ; @_ZTv0_n24_NSt3__118basic_stringstreamIcNS_11char_traitsIcEENS_9allocatorIcEEED0Ev
	.cfi_startproc
; %bb.0:
	stp	x22, x21, [sp, #-48]!           ; 16-byte Folded Spill
	stp	x20, x19, [sp, #16]             ; 16-byte Folded Spill
	stp	x29, x30, [sp, #32]             ; 16-byte Folded Spill
	add	x29, sp, #32                    ; =32
	.cfi_def_cfa w29, 16
	.cfi_offset w30, -8
	.cfi_offset w29, -16
	.cfi_offset w19, -24
	.cfi_offset w20, -32
	.cfi_offset w21, -40
	.cfi_offset w22, -48
	ldr	x8, [x0]
	ldur	x8, [x8, #-24]
	add	x19, x0, x8
Lloh217:
	adrp	x8, __ZTVNSt3__118basic_stringstreamIcNS_11char_traitsIcEENS_9allocatorIcEEEE@GOTPAGE
Lloh218:
	ldr	x8, [x8, __ZTVNSt3__118basic_stringstreamIcNS_11char_traitsIcEENS_9allocatorIcEEEE@GOTPAGEOFF]
	add	x9, x8, #24                     ; =24
	str	x9, [x19]
	add	x9, x8, #104                    ; =104
	mov	x20, x19
	str	x9, [x20, #128]!
	add	x8, x8, #64                     ; =64
Lloh219:
	adrp	x9, __ZTVNSt3__115basic_stringbufIcNS_11char_traitsIcEENS_9allocatorIcEEEE@GOTPAGE
Lloh220:
	ldr	x9, [x9, __ZTVNSt3__115basic_stringbufIcNS_11char_traitsIcEENS_9allocatorIcEEEE@GOTPAGEOFF]
	str	x8, [x19, #16]
	add	x8, x9, #16                     ; =16
	mov	x21, x19
	str	x8, [x21, #24]!
	ldrsb	w8, [x19, #111]
	tbz	w8, #31, LBB36_2
; %bb.1:
	ldr	x0, [x19, #88]
	bl	__ZdlPv
LBB36_2:
	mov	x0, x21
	bl	__ZNSt3__115basic_streambufIcNS_11char_traitsIcEEED2Ev
Lloh221:
	adrp	x8, __ZTTNSt3__118basic_stringstreamIcNS_11char_traitsIcEENS_9allocatorIcEEEE@GOTPAGE
Lloh222:
	ldr	x8, [x8, __ZTTNSt3__118basic_stringstreamIcNS_11char_traitsIcEENS_9allocatorIcEEEE@GOTPAGEOFF]
	add	x1, x8, #8                      ; =8
	mov	x0, x19
	bl	__ZNSt3__114basic_iostreamIcNS_11char_traitsIcEEED2Ev
	mov	x0, x20
	bl	__ZNSt3__19basic_iosIcNS_11char_traitsIcEEED2Ev
	mov	x0, x19
	ldp	x29, x30, [sp, #32]             ; 16-byte Folded Reload
	ldp	x20, x19, [sp, #16]             ; 16-byte Folded Reload
	ldp	x22, x21, [sp], #48             ; 16-byte Folded Reload
	b	__ZdlPv
	.loh AdrpLdrGot	Lloh219, Lloh220
	.loh AdrpLdrGot	Lloh217, Lloh218
	.loh AdrpLdrGot	Lloh221, Lloh222
	.cfi_endproc
                                        ; -- End function
	.globl	__ZNSt3__115basic_stringbufIcNS_11char_traitsIcEENS_9allocatorIcEEED1Ev ; -- Begin function _ZNSt3__115basic_stringbufIcNS_11char_traitsIcEENS_9allocatorIcEEED1Ev
	.weak_def_can_be_hidden	__ZNSt3__115basic_stringbufIcNS_11char_traitsIcEENS_9allocatorIcEEED1Ev
	.p2align	2
__ZNSt3__115basic_stringbufIcNS_11char_traitsIcEENS_9allocatorIcEEED1Ev: ; @_ZNSt3__115basic_stringbufIcNS_11char_traitsIcEENS_9allocatorIcEEED1Ev
	.cfi_startproc
; %bb.0:
	stp	x20, x19, [sp, #-32]!           ; 16-byte Folded Spill
	stp	x29, x30, [sp, #16]             ; 16-byte Folded Spill
	add	x29, sp, #16                    ; =16
	.cfi_def_cfa w29, 16
	.cfi_offset w30, -8
	.cfi_offset w29, -16
	.cfi_offset w19, -24
	.cfi_offset w20, -32
	mov	x19, x0
Lloh223:
	adrp	x8, __ZTVNSt3__115basic_stringbufIcNS_11char_traitsIcEENS_9allocatorIcEEEE@GOTPAGE
Lloh224:
	ldr	x8, [x8, __ZTVNSt3__115basic_stringbufIcNS_11char_traitsIcEENS_9allocatorIcEEEE@GOTPAGEOFF]
	add	x8, x8, #16                     ; =16
	str	x8, [x0]
	ldrsb	w8, [x0, #87]
	tbz	w8, #31, LBB37_2
; %bb.1:
	ldr	x0, [x19, #64]
	bl	__ZdlPv
LBB37_2:
	mov	x0, x19
	ldp	x29, x30, [sp, #16]             ; 16-byte Folded Reload
	ldp	x20, x19, [sp], #32             ; 16-byte Folded Reload
	b	__ZNSt3__115basic_streambufIcNS_11char_traitsIcEEED2Ev
	.loh AdrpLdrGot	Lloh223, Lloh224
	.cfi_endproc
                                        ; -- End function
	.globl	__ZNSt3__115basic_stringbufIcNS_11char_traitsIcEENS_9allocatorIcEEED0Ev ; -- Begin function _ZNSt3__115basic_stringbufIcNS_11char_traitsIcEENS_9allocatorIcEEED0Ev
	.weak_def_can_be_hidden	__ZNSt3__115basic_stringbufIcNS_11char_traitsIcEENS_9allocatorIcEEED0Ev
	.p2align	2
__ZNSt3__115basic_stringbufIcNS_11char_traitsIcEENS_9allocatorIcEEED0Ev: ; @_ZNSt3__115basic_stringbufIcNS_11char_traitsIcEENS_9allocatorIcEEED0Ev
	.cfi_startproc
; %bb.0:
	stp	x20, x19, [sp, #-32]!           ; 16-byte Folded Spill
	stp	x29, x30, [sp, #16]             ; 16-byte Folded Spill
	add	x29, sp, #16                    ; =16
	.cfi_def_cfa w29, 16
	.cfi_offset w30, -8
	.cfi_offset w29, -16
	.cfi_offset w19, -24
	.cfi_offset w20, -32
	mov	x19, x0
Lloh225:
	adrp	x8, __ZTVNSt3__115basic_stringbufIcNS_11char_traitsIcEENS_9allocatorIcEEEE@GOTPAGE
Lloh226:
	ldr	x8, [x8, __ZTVNSt3__115basic_stringbufIcNS_11char_traitsIcEENS_9allocatorIcEEEE@GOTPAGEOFF]
	add	x8, x8, #16                     ; =16
	str	x8, [x0]
	ldrsb	w8, [x0, #87]
	tbz	w8, #31, LBB38_2
; %bb.1:
	ldr	x0, [x19, #64]
	bl	__ZdlPv
LBB38_2:
	mov	x0, x19
	bl	__ZNSt3__115basic_streambufIcNS_11char_traitsIcEEED2Ev
	ldp	x29, x30, [sp, #16]             ; 16-byte Folded Reload
	ldp	x20, x19, [sp], #32             ; 16-byte Folded Reload
	b	__ZdlPv
	.loh AdrpLdrGot	Lloh225, Lloh226
	.cfi_endproc
                                        ; -- End function
	.globl	__ZNSt3__115basic_stringbufIcNS_11char_traitsIcEENS_9allocatorIcEEE7seekoffExNS_8ios_base7seekdirEj ; -- Begin function _ZNSt3__115basic_stringbufIcNS_11char_traitsIcEENS_9allocatorIcEEE7seekoffExNS_8ios_base7seekdirEj
	.weak_def_can_be_hidden	__ZNSt3__115basic_stringbufIcNS_11char_traitsIcEENS_9allocatorIcEEE7seekoffExNS_8ios_base7seekdirEj
	.p2align	2
__ZNSt3__115basic_stringbufIcNS_11char_traitsIcEENS_9allocatorIcEEE7seekoffExNS_8ios_base7seekdirEj: ; @_ZNSt3__115basic_stringbufIcNS_11char_traitsIcEENS_9allocatorIcEEE7seekoffExNS_8ios_base7seekdirEj
	.cfi_startproc
; %bb.0:
	ldr	x9, [x0, #88]
	ldr	x10, [x0, #48]
	cmp	x9, x10
	b.hs	LBB39_2
; %bb.1:
	str	x10, [x0, #88]
	mov	x9, x10
LBB39_2:
	ands	w11, w3, #0x18
	b.eq	LBB39_5
; %bb.3:
	cmp	w2, #1                          ; =1
	b.ne	LBB39_7
; %bb.4:
	cmp	w11, #24                        ; =24
	b.ne	LBB39_7
LBB39_5:
	mov	x12, #-1
LBB39_6:
	movi.2d	v0, #0000000000000000
	stp	q0, q0, [x8, #96]
	stp	q0, q0, [x8, #64]
	stp	q0, q0, [x8, #32]
	stp	q0, q0, [x8]
	str	x12, [x8, #128]
	ret
LBB39_7:
	cbz	x9, LBB39_15
; %bb.8:
	add	x11, x0, #64                    ; =64
	ldrsb	w12, [x0, #87]
	tbz	w12, #31, LBB39_10
; %bb.9:
	ldr	x11, [x11]
LBB39_10:
	sub	x11, x9, x11
	cbz	w2, LBB39_16
LBB39_11:
	cmp	w2, #2                          ; =2
	b.eq	LBB39_17
; %bb.12:
	cmp	w2, #1                          ; =1
	b.ne	LBB39_5
; %bb.13:
	tbnz	w3, #3, LBB39_18
; %bb.14:
	ldr	x12, [x0, #40]
	sub	x13, x10, x12
	b	LBB39_19
LBB39_15:
	mov	x11, #0
	cbnz	w2, LBB39_11
LBB39_16:
	mov	x13, #0
	b	LBB39_19
LBB39_17:
	mov	x13, x11
	b	LBB39_19
LBB39_18:
	ldp	x13, x12, [x0, #16]
	sub	x13, x12, x13
LBB39_19:
	mov	x12, #-1
	adds	x13, x13, x1
	b.mi	LBB39_6
; %bb.20:
	cmp	x11, x13
	b.lt	LBB39_6
; %bb.21:
	cbz	x13, LBB39_26
; %bb.22:
	tbz	w3, #3, LBB39_24
; %bb.23:
	ldr	x11, [x0, #24]
	cbz	x11, LBB39_5
LBB39_24:
	tbz	w3, #4, LBB39_26
; %bb.25:
	cbz	x10, LBB39_5
LBB39_26:
	tbz	w3, #3, LBB39_28
; %bb.27:
	ldr	x10, [x0, #16]
	add	x10, x10, x13
	stp	x10, x9, [x0, #24]
LBB39_28:
	tbz	w3, #4, LBB39_30
; %bb.29:
	ldr	x9, [x0, #40]
	add	x9, x9, w13, sxtw
	str	x9, [x0, #48]
LBB39_30:
	mov	x12, x13
	b	LBB39_6
	.cfi_endproc
                                        ; -- End function
	.p2align	2                               ; -- Begin function _ZNSt3__115basic_stringbufIcNS_11char_traitsIcEENS_9allocatorIcEEE7seekposENS_4fposI11__mbstate_tEEj
__ZNSt3__115basic_stringbufIcNS_11char_traitsIcEENS_9allocatorIcEEE7seekposENS_4fposI11__mbstate_tEEj: ; @_ZNSt3__115basic_stringbufIcNS_11char_traitsIcEENS_9allocatorIcEEE7seekposENS_4fposI11__mbstate_tEEj
	.cfi_startproc
; %bb.0:
	mov	x3, x2
	ldr	x1, [x1, #128]
	ldr	x9, [x0]
	ldr	x4, [x9, #32]
	mov	w2, #0
	br	x4
	.cfi_endproc
                                        ; -- End function
	.globl	__ZNSt3__115basic_stringbufIcNS_11char_traitsIcEENS_9allocatorIcEEE9underflowEv ; -- Begin function _ZNSt3__115basic_stringbufIcNS_11char_traitsIcEENS_9allocatorIcEEE9underflowEv
	.weak_def_can_be_hidden	__ZNSt3__115basic_stringbufIcNS_11char_traitsIcEENS_9allocatorIcEEE9underflowEv
	.p2align	2
__ZNSt3__115basic_stringbufIcNS_11char_traitsIcEENS_9allocatorIcEEE9underflowEv: ; @_ZNSt3__115basic_stringbufIcNS_11char_traitsIcEENS_9allocatorIcEEE9underflowEv
	.cfi_startproc
; %bb.0:
	ldr	x8, [x0, #88]
	ldr	x9, [x0, #48]
	cmp	x8, x9
	b.hs	LBB41_2
; %bb.1:
	str	x9, [x0, #88]
	mov	x8, x9
LBB41_2:
	ldrb	w9, [x0, #96]
	tbz	w9, #3, LBB41_7
; %bb.3:
	ldr	x9, [x0, #32]
	cmp	x9, x8
	b.hs	LBB41_5
; %bb.4:
	str	x8, [x0, #32]
	mov	x9, x8
LBB41_5:
	ldr	x8, [x0, #24]
	cmp	x8, x9
	b.hs	LBB41_7
; %bb.6:
	ldrb	w0, [x8]
	ret
LBB41_7:
	mov	w0, #-1
	ret
	.cfi_endproc
                                        ; -- End function
	.globl	__ZNSt3__115basic_stringbufIcNS_11char_traitsIcEENS_9allocatorIcEEE9pbackfailEi ; -- Begin function _ZNSt3__115basic_stringbufIcNS_11char_traitsIcEENS_9allocatorIcEEE9pbackfailEi
	.weak_def_can_be_hidden	__ZNSt3__115basic_stringbufIcNS_11char_traitsIcEENS_9allocatorIcEEE9pbackfailEi
	.p2align	2
__ZNSt3__115basic_stringbufIcNS_11char_traitsIcEENS_9allocatorIcEEE9pbackfailEi: ; @_ZNSt3__115basic_stringbufIcNS_11char_traitsIcEENS_9allocatorIcEEE9pbackfailEi
	.cfi_startproc
; %bb.0:
	ldr	x8, [x0, #88]
	ldr	x9, [x0, #48]
	cmp	x8, x9
	b.hs	LBB42_2
; %bb.1:
	str	x9, [x0, #88]
	mov	x8, x9
LBB42_2:
	ldp	x10, x9, [x0, #16]
	cmp	x10, x9
	b.hs	LBB42_7
; %bb.3:
	cmn	w1, #1                          ; =1
	b.eq	LBB42_8
; %bb.4:
	ldrb	w10, [x0, #96]
	tbnz	w10, #4, LBB42_6
; %bb.5:
	ldurb	w10, [x9, #-1]
	cmp	w10, w1, uxtb
	b.ne	LBB42_7
LBB42_6:
	sub	x10, x9, #1                     ; =1
	stp	x10, x8, [x0, #24]
	sturb	w1, [x9, #-1]
	mov	x0, x1
	ret
LBB42_7:
	mov	w0, #-1
	ret
LBB42_8:
	sub	x9, x9, #1                      ; =1
	stp	x9, x8, [x0, #24]
	mov	w0, #0
	ret
	.cfi_endproc
                                        ; -- End function
	.globl	__ZNSt3__115basic_stringbufIcNS_11char_traitsIcEENS_9allocatorIcEEE8overflowEi ; -- Begin function _ZNSt3__115basic_stringbufIcNS_11char_traitsIcEENS_9allocatorIcEEE8overflowEi
	.weak_def_can_be_hidden	__ZNSt3__115basic_stringbufIcNS_11char_traitsIcEENS_9allocatorIcEEE8overflowEi
	.p2align	2
__ZNSt3__115basic_stringbufIcNS_11char_traitsIcEENS_9allocatorIcEEE8overflowEi: ; @_ZNSt3__115basic_stringbufIcNS_11char_traitsIcEENS_9allocatorIcEEE8overflowEi
Lfunc_begin12:
	.cfi_startproc
	.cfi_personality 155, ___gxx_personality_v0
	.cfi_lsda 16, Lexception12
; %bb.0:
	sub	sp, sp, #96                     ; =96
	stp	x26, x25, [sp, #16]             ; 16-byte Folded Spill
	stp	x24, x23, [sp, #32]             ; 16-byte Folded Spill
	stp	x22, x21, [sp, #48]             ; 16-byte Folded Spill
	stp	x20, x19, [sp, #64]             ; 16-byte Folded Spill
	stp	x29, x30, [sp, #80]             ; 16-byte Folded Spill
	add	x29, sp, #80                    ; =80
	.cfi_def_cfa w29, 16
	.cfi_offset w30, -8
	.cfi_offset w29, -16
	.cfi_offset w19, -24
	.cfi_offset w20, -32
	.cfi_offset w21, -40
	.cfi_offset w22, -48
	.cfi_offset w23, -56
	.cfi_offset w24, -64
	.cfi_offset w25, -72
	.cfi_offset w26, -80
	cmn	w1, #1                          ; =1
	b.eq	LBB43_3
; %bb.1:
	mov	x20, x1
	mov	x19, x0
	ldp	x23, x22, [x0, #16]
	ldp	x24, x8, [x0, #48]
	cmp	x24, x8
	b.eq	LBB43_4
; %bb.2:
	ldr	x10, [x19, #88]
	b	LBB43_15
LBB43_3:
	mov	w0, #0
	b	LBB43_21
LBB43_4:
	ldrb	w8, [x19, #96]
	tbnz	w8, #4, LBB43_6
; %bb.5:
	mov	w0, #-1
	b	LBB43_21
LBB43_6:
	ldr	x25, [x19, #40]
	ldr	x26, [x19, #88]
	add	x21, x19, #64                   ; =64
Ltmp201:
	mov	x0, x21
	mov	w1, #0
	bl	__ZNSt3__112basic_stringIcNS_11char_traitsIcEENS_9allocatorIcEEE9push_backEc
Ltmp202:
; %bb.7:
	ldrsb	w8, [x21, #23]
	tbnz	w8, #31, LBB43_9
; %bb.8:
	mov	w1, #22
	b	LBB43_10
LBB43_9:
	ldr	x8, [x19, #80]
	and	x8, x8, #0x7fffffffffffffff
	sub	x1, x8, #1                      ; =1
LBB43_10:
Ltmp203:
	mov	x0, x21
	mov	w2, #0
	bl	__ZNSt3__112basic_stringIcNS_11char_traitsIcEENS_9allocatorIcEEE6resizeEmc
Ltmp204:
; %bb.11:
	sub	x10, x24, x25
	sub	x9, x26, x25
	ldrsb	w8, [x21, #23]
	tbnz	w8, #31, LBB43_13
; %bb.12:
	and	x8, x8, #0xff
	b	LBB43_14
LBB43_13:
	ldp	x21, x8, [x19, #64]
LBB43_14:
	add	x8, x21, x8
	add	x24, x21, x10
	str	x21, [x19, #40]
	stp	x24, x8, [x19, #48]
	add	x10, x21, x9
	str	x10, [x19, #88]
LBB43_15:
	add	x9, x24, #1                     ; =1
	str	x9, [sp, #8]
	add	x11, x19, #88                   ; =88
	cmp	x9, x10
	add	x10, sp, #8                     ; =8
	csel	x10, x11, x10, lo
	ldr	x10, [x10]
	str	x10, [x19, #88]
	ldrb	w11, [x19, #96]
	tbz	w11, #3, LBB43_19
; %bb.16:
	sub	x11, x22, x23
	add	x12, x19, #64                   ; =64
	ldrsb	w13, [x19, #87]
	tbz	w13, #31, LBB43_18
; %bb.17:
	ldr	x12, [x12]
LBB43_18:
	add	x11, x12, x11
	stp	x12, x11, [x19, #16]
	str	x10, [x19, #32]
LBB43_19:
	cmp	x24, x8
	b.eq	LBB43_22
; %bb.20:
	str	x9, [x19, #48]
	strb	w20, [x24]
	and	w0, w20, #0xff
LBB43_21:
	ldp	x29, x30, [sp, #80]             ; 16-byte Folded Reload
	ldp	x20, x19, [sp, #64]             ; 16-byte Folded Reload
	ldp	x22, x21, [sp, #48]             ; 16-byte Folded Reload
	ldp	x24, x23, [sp, #32]             ; 16-byte Folded Reload
	ldp	x26, x25, [sp, #16]             ; 16-byte Folded Reload
	add	sp, sp, #96                     ; =96
	ret
LBB43_22:
	and	w1, w20, #0xff
	ldr	x8, [x19]
	ldr	x2, [x8, #104]
	mov	x0, x19
	ldp	x29, x30, [sp, #80]             ; 16-byte Folded Reload
	ldp	x20, x19, [sp, #64]             ; 16-byte Folded Reload
	ldp	x22, x21, [sp, #48]             ; 16-byte Folded Reload
	ldp	x24, x23, [sp, #32]             ; 16-byte Folded Reload
	ldp	x26, x25, [sp, #16]             ; 16-byte Folded Reload
	add	sp, sp, #96                     ; =96
	br	x2
LBB43_23:
Ltmp205:
	bl	___cxa_begin_catch
	bl	___cxa_end_catch
	mov	w0, #-1
	b	LBB43_21
Lfunc_end12:
	.cfi_endproc
	.section	__TEXT,__gcc_except_tab
	.p2align	2
GCC_except_table43:
Lexception12:
	.byte	255                             ; @LPStart Encoding = omit
	.byte	155                             ; @TType Encoding = indirect pcrel sdata4
	.uleb128 Lttbase2-Lttbaseref2
Lttbaseref2:
	.byte	1                               ; Call site Encoding = uleb128
	.uleb128 Lcst_end12-Lcst_begin12
Lcst_begin12:
	.uleb128 Ltmp201-Lfunc_begin12          ; >> Call Site 1 <<
	.uleb128 Ltmp204-Ltmp201                ;   Call between Ltmp201 and Ltmp204
	.uleb128 Ltmp205-Lfunc_begin12          ;     jumps to Ltmp205
	.byte	1                               ;   On action: 1
	.uleb128 Ltmp204-Lfunc_begin12          ; >> Call Site 2 <<
	.uleb128 Lfunc_end12-Ltmp204            ;   Call between Ltmp204 and Lfunc_end12
	.byte	0                               ;     has no landing pad
	.byte	0                               ;   On action: cleanup
Lcst_end12:
	.byte	1                               ; >> Action Record 1 <<
                                        ;   Catch TypeInfo 1
	.byte	0                               ;   No further actions
	.p2align	2
                                        ; >> Catch TypeInfos <<
	.long	0                               ; TypeInfo 1
Lttbase2:
	.p2align	2
                                        ; -- End function
	.section	__TEXT,__text,regular,pure_instructions
	.private_extern	___clang_call_terminate ; -- Begin function __clang_call_terminate
	.globl	___clang_call_terminate
	.weak_def_can_be_hidden	___clang_call_terminate
	.p2align	2
___clang_call_terminate:                ; @__clang_call_terminate
; %bb.0:
	stp	x29, x30, [sp, #-16]!           ; 16-byte Folded Spill
	bl	___cxa_begin_catch
	bl	__ZSt9terminatev
                                        ; -- End function
	.globl	__ZNKSt3__115basic_stringbufIcNS_11char_traitsIcEENS_9allocatorIcEEE3strEv ; -- Begin function _ZNKSt3__115basic_stringbufIcNS_11char_traitsIcEENS_9allocatorIcEEE3strEv
	.weak_def_can_be_hidden	__ZNKSt3__115basic_stringbufIcNS_11char_traitsIcEENS_9allocatorIcEEE3strEv
	.p2align	2
__ZNKSt3__115basic_stringbufIcNS_11char_traitsIcEENS_9allocatorIcEEE3strEv: ; @_ZNKSt3__115basic_stringbufIcNS_11char_traitsIcEENS_9allocatorIcEEE3strEv
	.cfi_startproc
; %bb.0:
	stp	x24, x23, [sp, #-64]!           ; 16-byte Folded Spill
	stp	x22, x21, [sp, #16]             ; 16-byte Folded Spill
	stp	x20, x19, [sp, #32]             ; 16-byte Folded Spill
	stp	x29, x30, [sp, #48]             ; 16-byte Folded Spill
	add	x29, sp, #48                    ; =48
	.cfi_def_cfa w29, 16
	.cfi_offset w30, -8
	.cfi_offset w29, -16
	.cfi_offset w19, -24
	.cfi_offset w20, -32
	.cfi_offset w21, -40
	.cfi_offset w22, -48
	.cfi_offset w23, -56
	.cfi_offset w24, -64
	mov	x19, x8
	ldr	w8, [x0, #96]
	tbnz	w8, #4, LBB45_3
; %bb.1:
	tbnz	w8, #3, LBB45_8
; %bb.2:
	stp	xzr, xzr, [x19]
	str	xzr, [x19, #16]
	b	LBB45_16
LBB45_3:
	ldr	x21, [x0, #88]
	ldr	x8, [x0, #48]
	cmp	x21, x8
	b.hs	LBB45_5
; %bb.4:
	str	x8, [x0, #88]
	mov	x21, x8
LBB45_5:
	ldr	x22, [x0, #40]
	sub	x23, x21, x22
	cmn	x23, #16                        ; =16
	b.hs	LBB45_17
; %bb.6:
	cmp	x23, #22                        ; =22
	b.hi	LBB45_11
; %bb.7:
	strb	w23, [x19, #23]
	cmp	x22, x21
	b.ne	LBB45_12
	b	LBB45_15
LBB45_8:
	ldr	x21, [x0, #16]
	ldr	x22, [x0, #32]
	sub	x23, x22, x21
	cmn	x23, #16                        ; =16
	b.hs	LBB45_17
; %bb.9:
	cmp	x23, #22                        ; =22
	b.hi	LBB45_13
; %bb.10:
	strb	w23, [x19, #23]
	cmp	x21, x22
	b.ne	LBB45_14
	b	LBB45_15
LBB45_11:
	add	x8, x23, #16                    ; =16
	and	x20, x8, #0xfffffffffffffff0
	mov	x0, x20
	bl	__Znwm
	orr	x8, x20, #0x8000000000000000
	stp	x23, x8, [x19, #8]
	str	x0, [x19]
	mov	x19, x0
	cmp	x22, x21
	b.eq	LBB45_15
LBB45_12:                               ; =>This Inner Loop Header: Depth=1
	ldrb	w8, [x22], #1
	strb	w8, [x19], #1
	cmp	x21, x22
	b.ne	LBB45_12
	b	LBB45_15
LBB45_13:
	add	x8, x23, #16                    ; =16
	and	x20, x8, #0xfffffffffffffff0
	mov	x0, x20
	bl	__Znwm
	orr	x8, x20, #0x8000000000000000
	stp	x23, x8, [x19, #8]
	str	x0, [x19]
	mov	x19, x0
	cmp	x21, x22
	b.eq	LBB45_15
LBB45_14:                               ; =>This Inner Loop Header: Depth=1
	ldrb	w8, [x21], #1
	strb	w8, [x19], #1
	cmp	x22, x21
	b.ne	LBB45_14
LBB45_15:
	strb	wzr, [x19]
LBB45_16:
	ldp	x29, x30, [sp, #48]             ; 16-byte Folded Reload
	ldp	x20, x19, [sp, #32]             ; 16-byte Folded Reload
	ldp	x22, x21, [sp, #16]             ; 16-byte Folded Reload
	ldp	x24, x23, [sp], #64             ; 16-byte Folded Reload
	ret
LBB45_17:
	mov	x0, x19
	bl	__ZNKSt3__121__basic_string_commonILb1EE20__throw_length_errorEv
	.cfi_endproc
                                        ; -- End function
	.p2align	2                               ; -- Begin function _ZNSt3__1L20__throw_length_errorEPKc
__ZNSt3__1L20__throw_length_errorEPKc:  ; @_ZNSt3__1L20__throw_length_errorEPKc
Lfunc_begin13:
	.cfi_startproc
	.cfi_personality 155, ___gxx_personality_v0
	.cfi_lsda 16, Lexception13
; %bb.0:
	stp	x20, x19, [sp, #-32]!           ; 16-byte Folded Spill
	stp	x29, x30, [sp, #16]             ; 16-byte Folded Spill
	add	x29, sp, #16                    ; =16
	.cfi_def_cfa w29, 16
	.cfi_offset w30, -8
	.cfi_offset w29, -16
	.cfi_offset w19, -24
	.cfi_offset w20, -32
	mov	w0, #16
	bl	___cxa_allocate_exception
	mov	x19, x0
Ltmp206:
	bl	__ZNSt12length_errorC1EPKc
Ltmp207:
; %bb.1:
Lloh227:
	adrp	x1, __ZTISt12length_error@GOTPAGE
Lloh228:
	ldr	x1, [x1, __ZTISt12length_error@GOTPAGEOFF]
Lloh229:
	adrp	x2, __ZNSt12length_errorD1Ev@GOTPAGE
Lloh230:
	ldr	x2, [x2, __ZNSt12length_errorD1Ev@GOTPAGEOFF]
	mov	x0, x19
	bl	___cxa_throw
LBB46_2:
Ltmp208:
	mov	x20, x0
	mov	x0, x19
	bl	___cxa_free_exception
	mov	x0, x20
	bl	__Unwind_Resume
	brk	#0x1
	.loh AdrpLdrGot	Lloh229, Lloh230
	.loh AdrpLdrGot	Lloh227, Lloh228
Lfunc_end13:
	.cfi_endproc
	.section	__TEXT,__gcc_except_tab
	.p2align	2
GCC_except_table46:
Lexception13:
	.byte	255                             ; @LPStart Encoding = omit
	.byte	255                             ; @TType Encoding = omit
	.byte	1                               ; Call site Encoding = uleb128
	.uleb128 Lcst_end13-Lcst_begin13
Lcst_begin13:
	.uleb128 Lfunc_begin13-Lfunc_begin13    ; >> Call Site 1 <<
	.uleb128 Ltmp206-Lfunc_begin13          ;   Call between Lfunc_begin13 and Ltmp206
	.byte	0                               ;     has no landing pad
	.byte	0                               ;   On action: cleanup
	.uleb128 Ltmp206-Lfunc_begin13          ; >> Call Site 2 <<
	.uleb128 Ltmp207-Ltmp206                ;   Call between Ltmp206 and Ltmp207
	.uleb128 Ltmp208-Lfunc_begin13          ;     jumps to Ltmp208
	.byte	0                               ;   On action: cleanup
	.uleb128 Ltmp207-Lfunc_begin13          ; >> Call Site 3 <<
	.uleb128 Lfunc_end13-Ltmp207            ;   Call between Ltmp207 and Lfunc_end13
	.byte	0                               ;     has no landing pad
	.byte	0                               ;   On action: cleanup
Lcst_end13:
	.p2align	2
                                        ; -- End function
	.section	__TEXT,__text,regular,pure_instructions
	.p2align	2                               ; -- Begin function _ZNSt12length_errorC1EPKc
__ZNSt12length_errorC1EPKc:             ; @_ZNSt12length_errorC1EPKc
	.cfi_startproc
; %bb.0:
	stp	x29, x30, [sp, #-16]!           ; 16-byte Folded Spill
	mov	x29, sp
	.cfi_def_cfa w29, 16
	.cfi_offset w30, -8
	.cfi_offset w29, -16
Lloh231:
	adrp	x1, l_.str.36@PAGE
Lloh232:
	add	x1, x1, l_.str.36@PAGEOFF
	bl	__ZNSt11logic_errorC2EPKc
Lloh233:
	adrp	x8, __ZTVSt12length_error@GOTPAGE
Lloh234:
	ldr	x8, [x8, __ZTVSt12length_error@GOTPAGEOFF]
	add	x8, x8, #16                     ; =16
	str	x8, [x0]
	ldp	x29, x30, [sp], #16             ; 16-byte Folded Reload
	ret
	.loh AdrpLdrGot	Lloh233, Lloh234
	.loh AdrpAdd	Lloh231, Lloh232
	.cfi_endproc
                                        ; -- End function
	.globl	__ZN12simple_int64C2Ev          ; -- Begin function _ZN12simple_int64C2Ev
	.weak_def_can_be_hidden	__ZN12simple_int64C2Ev
	.p2align	2
__ZN12simple_int64C2Ev:                 ; @_ZN12simple_int64C2Ev
Lfunc_begin14:
	.cfi_startproc
	.cfi_personality 155, ___gxx_personality_v0
	.cfi_lsda 16, Lexception14
; %bb.0:
	sub	sp, sp, #64                     ; =64
	stp	x20, x19, [sp, #32]             ; 16-byte Folded Spill
	stp	x29, x30, [sp, #48]             ; 16-byte Folded Spill
	add	x29, sp, #48                    ; =48
	.cfi_def_cfa w29, 16
	.cfi_offset w30, -8
	.cfi_offset w29, -16
	.cfi_offset w19, -24
	.cfi_offset w20, -32
	mov	x19, x0
Lloh235:
	adrp	x8, __ZTV12simple_int64@GOTPAGE
Lloh236:
	ldr	x8, [x8, __ZTV12simple_int64@GOTPAGEOFF]
	add	x8, x8, #16                     ; =16
	mov	x20, x0
	str	x8, [x20], #8
	mov	w8, #12
	strb	w8, [sp, #31]
	mov	w8, #25710
	movk	w8, #28015, lsl #16
	str	w8, [sp, #16]
Lloh237:
	adrp	x8, l_.str.29@PAGE
Lloh238:
	add	x8, x8, l_.str.29@PAGEOFF
Lloh239:
	ldr	x8, [x8]
	str	x8, [sp, #8]
	strb	wzr, [sp, #20]
Ltmp209:
	add	x1, sp, #8                      ; =8
	mov	x0, x20
	bl	__ZNSt3__113random_deviceC1ERKNS_12basic_stringIcNS_11char_traitsIcEENS_9allocatorIcEEEE
Ltmp210:
; %bb.1:
	ldrsb	w8, [sp, #31]
	tbz	w8, #31, LBB48_3
; %bb.2:
	ldr	x0, [sp, #8]
	bl	__ZdlPv
LBB48_3:
Ltmp212:
	mov	x0, x20
	bl	__ZNSt3__113random_deviceclEv
Ltmp213:
; %bb.4:
	mov	w8, w0
	str	x8, [x19, #16]
	mov	w9, #1
	mov	w10, #3
	mov	x11, #32557
	movk	x11, #19605, lsl #16
	movk	x11, #62509, lsl #32
	movk	x11, #22609, lsl #48
LBB48_5:                                ; =>This Inner Loop Header: Depth=1
	eor	x8, x8, x8, lsr #62
	mul	x12, x8, x11
	add	x8, x12, x9
	add	x12, x10, x12
	sub	x12, x12, #2                    ; =2
	str	x12, [x19, x10, lsl #3]
	add	x9, x9, #1                      ; =1
	add	x10, x10, #1                    ; =1
	cmp	x10, #314                       ; =314
	b.ne	LBB48_5
; %bb.6:
	str	xzr, [x19, #2512]
	mov	x0, x19
	ldp	x29, x30, [sp, #48]             ; 16-byte Folded Reload
	ldp	x20, x19, [sp, #32]             ; 16-byte Folded Reload
	add	sp, sp, #64                     ; =64
	ret
LBB48_7:
Ltmp214:
	mov	x19, x0
	mov	x0, x20
	bl	__ZNSt3__113random_deviceD1Ev
	b	LBB48_10
LBB48_8:
Ltmp211:
	mov	x19, x0
	ldrsb	w8, [sp, #31]
	tbz	w8, #31, LBB48_10
; %bb.9:
	ldr	x0, [sp, #8]
	bl	__ZdlPv
LBB48_10:
	mov	x0, x19
	bl	__Unwind_Resume
	brk	#0x1
	.loh AdrpAddLdr	Lloh237, Lloh238, Lloh239
	.loh AdrpLdrGot	Lloh235, Lloh236
Lfunc_end14:
	.cfi_endproc
	.section	__TEXT,__gcc_except_tab
	.p2align	2
GCC_except_table48:
Lexception14:
	.byte	255                             ; @LPStart Encoding = omit
	.byte	255                             ; @TType Encoding = omit
	.byte	1                               ; Call site Encoding = uleb128
	.uleb128 Lcst_end14-Lcst_begin14
Lcst_begin14:
	.uleb128 Ltmp209-Lfunc_begin14          ; >> Call Site 1 <<
	.uleb128 Ltmp210-Ltmp209                ;   Call between Ltmp209 and Ltmp210
	.uleb128 Ltmp211-Lfunc_begin14          ;     jumps to Ltmp211
	.byte	0                               ;   On action: cleanup
	.uleb128 Ltmp212-Lfunc_begin14          ; >> Call Site 2 <<
	.uleb128 Ltmp213-Ltmp212                ;   Call between Ltmp212 and Ltmp213
	.uleb128 Ltmp214-Lfunc_begin14          ;     jumps to Ltmp214
	.byte	0                               ;   On action: cleanup
	.uleb128 Ltmp213-Lfunc_begin14          ; >> Call Site 3 <<
	.uleb128 Lfunc_end14-Ltmp213            ;   Call between Ltmp213 and Lfunc_end14
	.byte	0                               ;     has no landing pad
	.byte	0                               ;   On action: cleanup
Lcst_end14:
	.p2align	2
                                        ; -- End function
	.section	__TEXT,__text,regular,pure_instructions
	.globl	__ZN12simple_int6410new_stringEv ; -- Begin function _ZN12simple_int6410new_stringEv
	.weak_def_can_be_hidden	__ZN12simple_int6410new_stringEv
	.p2align	2
__ZN12simple_int6410new_stringEv:       ; @_ZN12simple_int6410new_stringEv
	.cfi_startproc
; %bb.0:
	add	x9, x0, #16                     ; =16
	ldr	x10, [x0, #2512]
	add	x11, x10, #1                    ; =1
	lsr	x12, x11, #3
	mov	x13, #3361
	movk	x13, #8402, lsl #16
	movk	x13, #53773, lsl #32
	movk	x13, #3360, lsl #48
	umulh	x12, x12, x13
	lsr	x12, x12, #1
	mov	w14, #312
	msub	x11, x12, x14, x11
	lsl	x12, x10, #3
	ldr	x15, [x9, x12]
	ldr	x16, [x9, x11, lsl #3]
	and	x15, x15, #0xffffffff80000000
	and	x17, x16, #0x7ffffffe
	orr	x15, x17, x15
	add	x10, x10, #156                  ; =156
	lsr	x17, x10, #3
	umulh	x13, x17, x13
	lsr	x13, x13, #1
	msub	x10, x13, x14, x10
	ldr	x10, [x9, x10, lsl #3]
	and	x13, x16, #0x1
	mov	x14, #6633
	movk	x14, #43366, lsl #16
	movk	x14, #28506, lsl #32
	movk	x14, #46338, lsl #48
	mul	x13, x13, x14
	eor	x10, x13, x10
	eor	x10, x10, x15, lsr #1
	str	x10, [x9, x12]
	lsr	x9, x10, #29
	and	x9, x9, #0x5555555555555555
	eor	x9, x9, x10
	str	x11, [x0, #2512]
	mov	x10, #3987079168
	movk	x10, #32767, lsl #32
	movk	x10, #29142, lsl #48
	and	x10, x10, x9, lsl #17
	eor	x9, x10, x9
	mov	x10, #262645840084992
	movk	x10, #65527, lsl #48
	and	x10, x10, x9, lsl #37
	eor	x9, x10, x9
	eor	x0, x9, x9, lsr #43
	b	__Z17integer_to_stringIyENSt3__112basic_stringIcNS0_11char_traitsIcEENS0_9allocatorIcEEEET_
	.cfi_endproc
                                        ; -- End function
	.globl	__ZN12simple_int648describeEv   ; -- Begin function _ZN12simple_int648describeEv
	.weak_def_can_be_hidden	__ZN12simple_int648describeEv
	.p2align	2
__ZN12simple_int648describeEv:          ; @_ZN12simple_int648describeEv
	.cfi_startproc
; %bb.0:
	mov	w9, #8
	strb	w9, [x8, #23]
	mov	x9, #24946
	movk	x9, #25710, lsl #16
	movk	x9, #13366, lsl #32
	movk	x9, #10536, lsl #48
	str	x9, [x8]
	strb	wzr, [x8, #8]
	ret
	.cfi_endproc
                                        ; -- End function
	.globl	__ZN12simple_int64D1Ev          ; -- Begin function _ZN12simple_int64D1Ev
	.weak_def_can_be_hidden	__ZN12simple_int64D1Ev
	.p2align	2
__ZN12simple_int64D1Ev:                 ; @_ZN12simple_int64D1Ev
	.cfi_startproc
; %bb.0:
	stp	x20, x19, [sp, #-32]!           ; 16-byte Folded Spill
	stp	x29, x30, [sp, #16]             ; 16-byte Folded Spill
	add	x29, sp, #16                    ; =16
	.cfi_def_cfa w29, 16
	.cfi_offset w30, -8
	.cfi_offset w29, -16
	.cfi_offset w19, -24
	.cfi_offset w20, -32
	mov	x19, x0
Lloh240:
	adrp	x8, __ZTV12simple_int64@GOTPAGE
Lloh241:
	ldr	x8, [x8, __ZTV12simple_int64@GOTPAGEOFF]
	add	x8, x8, #16                     ; =16
	str	x8, [x0], #8
	bl	__ZNSt3__113random_deviceD1Ev
	mov	x0, x19
	ldp	x29, x30, [sp, #16]             ; 16-byte Folded Reload
	ldp	x20, x19, [sp], #32             ; 16-byte Folded Reload
	ret
	.loh AdrpLdrGot	Lloh240, Lloh241
	.cfi_endproc
                                        ; -- End function
	.globl	__ZN12simple_int64D0Ev          ; -- Begin function _ZN12simple_int64D0Ev
	.weak_def_can_be_hidden	__ZN12simple_int64D0Ev
	.p2align	2
__ZN12simple_int64D0Ev:                 ; @_ZN12simple_int64D0Ev
	.cfi_startproc
; %bb.0:
	stp	x20, x19, [sp, #-32]!           ; 16-byte Folded Spill
	stp	x29, x30, [sp, #16]             ; 16-byte Folded Spill
	add	x29, sp, #16                    ; =16
	.cfi_def_cfa w29, 16
	.cfi_offset w30, -8
	.cfi_offset w29, -16
	.cfi_offset w19, -24
	.cfi_offset w20, -32
	mov	x19, x0
Lloh242:
	adrp	x8, __ZTV12simple_int64@GOTPAGE
Lloh243:
	ldr	x8, [x8, __ZTV12simple_int64@GOTPAGEOFF]
	add	x8, x8, #16                     ; =16
	str	x8, [x0], #8
	bl	__ZNSt3__113random_deviceD1Ev
	mov	x0, x19
	ldp	x29, x30, [sp, #16]             ; 16-byte Folded Reload
	ldp	x20, x19, [sp], #32             ; 16-byte Folded Reload
	b	__ZdlPv
	.loh AdrpLdrGot	Lloh242, Lloh243
	.cfi_endproc
                                        ; -- End function
	.globl	__Z17integer_to_stringIyENSt3__112basic_stringIcNS0_11char_traitsIcEENS0_9allocatorIcEEEET_ ; -- Begin function _Z17integer_to_stringIyENSt3__112basic_stringIcNS0_11char_traitsIcEENS0_9allocatorIcEEEET_
	.weak_def_can_be_hidden	__Z17integer_to_stringIyENSt3__112basic_stringIcNS0_11char_traitsIcEENS0_9allocatorIcEEEET_
	.p2align	2
__Z17integer_to_stringIyENSt3__112basic_stringIcNS0_11char_traitsIcEENS0_9allocatorIcEEEET_: ; @_Z17integer_to_stringIyENSt3__112basic_stringIcNS0_11char_traitsIcEENS0_9allocatorIcEEEET_
Lfunc_begin15:
	.cfi_startproc
	.cfi_personality 155, ___gxx_personality_v0
	.cfi_lsda 16, Lexception15
; %bb.0:
	sub	sp, sp, #368                    ; =368
	stp	x26, x25, [sp, #288]            ; 16-byte Folded Spill
	stp	x24, x23, [sp, #304]            ; 16-byte Folded Spill
	stp	x22, x21, [sp, #320]            ; 16-byte Folded Spill
	stp	x20, x19, [sp, #336]            ; 16-byte Folded Spill
	stp	x29, x30, [sp, #352]            ; 16-byte Folded Spill
	add	x29, sp, #352                   ; =352
	.cfi_def_cfa w29, 16
	.cfi_offset w30, -8
	.cfi_offset w29, -16
	.cfi_offset w19, -24
	.cfi_offset w20, -32
	.cfi_offset w21, -40
	.cfi_offset w22, -48
	.cfi_offset w23, -56
	.cfi_offset w24, -64
	.cfi_offset w25, -72
	.cfi_offset w26, -80
	mov	x22, x0
	mov	x21, x8
Lloh244:
	adrp	x23, __ZTVNSt3__118basic_stringstreamIcNS_11char_traitsIcEENS_9allocatorIcEEEE@GOTPAGE
Lloh245:
	ldr	x23, [x23, __ZTVNSt3__118basic_stringstreamIcNS_11char_traitsIcEENS_9allocatorIcEEEE@GOTPAGEOFF]
Lloh246:
	adrp	x8, __ZTCNSt3__118basic_stringstreamIcNS_11char_traitsIcEENS_9allocatorIcEEEE0_NS_13basic_istreamIcS2_EE@GOTPAGE
Lloh247:
	ldr	x8, [x8, __ZTCNSt3__118basic_stringstreamIcNS_11char_traitsIcEENS_9allocatorIcEEEE0_NS_13basic_istreamIcS2_EE@GOTPAGEOFF]
	add	x9, sp, #8                      ; =8
	add	x19, x9, #128                   ; =128
	add	x24, x23, #64                   ; =64
	add	x20, x9, #24                    ; =24
	add	x9, x8, #64                     ; =64
	stp	xzr, x24, [sp, #16]
	str	x9, [sp, #136]
	add	x8, x8, #24                     ; =24
	str	x8, [sp, #8]
Ltmp215:
	mov	x0, x19
	mov	x1, x20
	bl	__ZNSt3__18ios_base4initEPv
Ltmp216:
; %bb.1:
	mov	w8, #-1
	str	w8, [sp, #280]
	add	x8, x23, #24                    ; =24
	add	x9, x23, #104                   ; =104
	str	xzr, [sp, #272]
	str	x9, [sp, #136]
	str	x8, [sp, #8]
	str	x24, [sp, #24]
Ltmp218:
	mov	x0, x20
	bl	__ZNSt3__115basic_streambufIcNS_11char_traitsIcEEEC2Ev
Ltmp219:
; %bb.2:
Lloh248:
	adrp	x25, __ZTVNSt3__115basic_stringbufIcNS_11char_traitsIcEENS_9allocatorIcEEEE@GOTPAGE
Lloh249:
	ldr	x25, [x25, __ZTVNSt3__115basic_stringbufIcNS_11char_traitsIcEENS_9allocatorIcEEEE@GOTPAGEOFF]
	add	x24, x25, #16                   ; =16
	str	x24, [sp, #32]
	movi.2d	v0, #0000000000000000
	stp	q0, q0, [sp, #96]
	mov	w8, #24
	str	w8, [sp, #128]
	add	x8, sp, #8                      ; =8
	add	x0, x8, #16                     ; =16
Ltmp221:
	mov	x1, x22
	bl	__ZNSt3__113basic_ostreamIcNS_11char_traitsIcEEElsEy
Ltmp222:
; %bb.3:
Ltmp223:
	mov	x8, x21
	mov	x0, x20
	bl	__ZNKSt3__115basic_stringbufIcNS_11char_traitsIcEENS_9allocatorIcEEE3strEv
Ltmp224:
; %bb.4:
	add	x8, x23, #24                    ; =24
	add	x9, x23, #104                   ; =104
	add	x10, x23, #64                   ; =64
	str	x8, [sp, #8]
	add	x8, x25, #16                    ; =16
	str	x9, [sp, #136]
	stp	x10, x8, [sp, #24]
	ldrsb	w8, [sp, #119]
	tbz	w8, #31, LBB53_6
; %bb.5:
	ldr	x0, [sp, #96]
	bl	__ZdlPv
LBB53_6:
	mov	x0, x20
	bl	__ZNSt3__115basic_streambufIcNS_11char_traitsIcEEED2Ev
Lloh250:
	adrp	x8, __ZTTNSt3__118basic_stringstreamIcNS_11char_traitsIcEENS_9allocatorIcEEEE@GOTPAGE
Lloh251:
	ldr	x8, [x8, __ZTTNSt3__118basic_stringstreamIcNS_11char_traitsIcEENS_9allocatorIcEEEE@GOTPAGEOFF]
	add	x1, x8, #8                      ; =8
	add	x0, sp, #8                      ; =8
	bl	__ZNSt3__114basic_iostreamIcNS_11char_traitsIcEEED2Ev
	mov	x0, x19
	bl	__ZNSt3__19basic_iosIcNS_11char_traitsIcEEED2Ev
	ldp	x29, x30, [sp, #352]            ; 16-byte Folded Reload
	ldp	x20, x19, [sp, #336]            ; 16-byte Folded Reload
	ldp	x22, x21, [sp, #320]            ; 16-byte Folded Reload
	ldp	x24, x23, [sp, #304]            ; 16-byte Folded Reload
	ldp	x26, x25, [sp, #288]            ; 16-byte Folded Reload
	add	sp, sp, #368                    ; =368
	ret
LBB53_7:
Ltmp220:
	mov	x21, x0
	b	LBB53_12
LBB53_8:
Ltmp217:
	mov	x21, x0
	b	LBB53_13
LBB53_9:
Ltmp225:
	mov	x21, x0
	add	x8, x23, #24                    ; =24
	add	x9, x23, #104                   ; =104
	add	x10, x23, #64                   ; =64
	str	x8, [sp, #8]
	stp	x10, x24, [sp, #24]
	str	x9, [sp, #136]
	ldrsb	w8, [sp, #119]
	tbz	w8, #31, LBB53_11
; %bb.10:
	ldr	x0, [sp, #96]
	bl	__ZdlPv
LBB53_11:
	mov	x0, x20
	bl	__ZNSt3__115basic_streambufIcNS_11char_traitsIcEEED2Ev
LBB53_12:
Lloh252:
	adrp	x8, __ZTTNSt3__118basic_stringstreamIcNS_11char_traitsIcEENS_9allocatorIcEEEE@GOTPAGE
Lloh253:
	ldr	x8, [x8, __ZTTNSt3__118basic_stringstreamIcNS_11char_traitsIcEENS_9allocatorIcEEEE@GOTPAGEOFF]
	add	x1, x8, #8                      ; =8
	add	x0, sp, #8                      ; =8
	bl	__ZNSt3__114basic_iostreamIcNS_11char_traitsIcEEED2Ev
LBB53_13:
	mov	x0, x19
	bl	__ZNSt3__19basic_iosIcNS_11char_traitsIcEEED2Ev
	mov	x0, x21
	bl	__Unwind_Resume
	brk	#0x1
	.loh AdrpLdrGot	Lloh246, Lloh247
	.loh AdrpLdrGot	Lloh244, Lloh245
	.loh AdrpLdrGot	Lloh248, Lloh249
	.loh AdrpLdrGot	Lloh250, Lloh251
	.loh AdrpLdrGot	Lloh252, Lloh253
Lfunc_end15:
	.cfi_endproc
	.section	__TEXT,__gcc_except_tab
	.p2align	2
GCC_except_table53:
Lexception15:
	.byte	255                             ; @LPStart Encoding = omit
	.byte	255                             ; @TType Encoding = omit
	.byte	1                               ; Call site Encoding = uleb128
	.uleb128 Lcst_end15-Lcst_begin15
Lcst_begin15:
	.uleb128 Ltmp215-Lfunc_begin15          ; >> Call Site 1 <<
	.uleb128 Ltmp216-Ltmp215                ;   Call between Ltmp215 and Ltmp216
	.uleb128 Ltmp217-Lfunc_begin15          ;     jumps to Ltmp217
	.byte	0                               ;   On action: cleanup
	.uleb128 Ltmp218-Lfunc_begin15          ; >> Call Site 2 <<
	.uleb128 Ltmp219-Ltmp218                ;   Call between Ltmp218 and Ltmp219
	.uleb128 Ltmp220-Lfunc_begin15          ;     jumps to Ltmp220
	.byte	0                               ;   On action: cleanup
	.uleb128 Ltmp221-Lfunc_begin15          ; >> Call Site 3 <<
	.uleb128 Ltmp224-Ltmp221                ;   Call between Ltmp221 and Ltmp224
	.uleb128 Ltmp225-Lfunc_begin15          ;     jumps to Ltmp225
	.byte	0                               ;   On action: cleanup
	.uleb128 Ltmp224-Lfunc_begin15          ; >> Call Site 4 <<
	.uleb128 Lfunc_end15-Ltmp224            ;   Call between Ltmp224 and Lfunc_end15
	.byte	0                               ;     has no landing pad
	.byte	0                               ;   On action: cleanup
Lcst_end15:
	.p2align	2
                                        ; -- End function
	.section	__TEXT,__text,regular,pure_instructions
	.globl	__ZN18bigint_int_dot_int10new_stringEv ; -- Begin function _ZN18bigint_int_dot_int10new_stringEv
	.weak_def_can_be_hidden	__ZN18bigint_int_dot_int10new_stringEv
	.p2align	2
__ZN18bigint_int_dot_int10new_stringEv: ; @_ZN18bigint_int_dot_int10new_stringEv
Lfunc_begin16:
	.cfi_startproc
	.cfi_personality 155, ___gxx_personality_v0
	.cfi_lsda 16, Lexception16
; %bb.0:
	sub	sp, sp, #160                    ; =160
	stp	x26, x25, [sp, #80]             ; 16-byte Folded Spill
	stp	x24, x23, [sp, #96]             ; 16-byte Folded Spill
	stp	x22, x21, [sp, #112]            ; 16-byte Folded Spill
	stp	x20, x19, [sp, #128]            ; 16-byte Folded Spill
	stp	x29, x30, [sp, #144]            ; 16-byte Folded Spill
	add	x29, sp, #144                   ; =144
	.cfi_def_cfa w29, 16
	.cfi_offset w30, -8
	.cfi_offset w29, -16
	.cfi_offset w19, -24
	.cfi_offset w20, -32
	.cfi_offset w21, -40
	.cfi_offset w22, -48
	.cfi_offset w23, -56
	.cfi_offset w24, -64
	.cfi_offset w25, -72
	.cfi_offset w26, -80
	mov	x20, x0
	mov	x19, x8
	mov	w21, #-272236544
	mov	w22, #22144
	movk	w22, #40236, lsl #16
	mov	w24, #45279
	movk	w24, #39176, lsl #16
	add	x23, x0, #24                    ; =24
	ldr	x8, [x0, #2520]
	add	x9, x8, #1                      ; =1
	lsr	x10, x9, #4
	mov	x25, #3361
	movk	x25, #8402, lsl #16
	movk	x25, #53773, lsl #32
	movk	x25, #3360, lsl #48
	umulh	x10, x10, x25
	lsr	x10, x10, #1
	mov	w11, #624
	msub	x9, x10, x11, x9
	lsl	x10, x8, #2
	ldr	w12, [x23, x10]
	and	w12, w12, #0x80000000
	ldr	w13, [x23, x9, lsl #2]
	and	w14, w13, #0x7ffffffe
	orr	w12, w14, w12
	add	x8, x8, #397                    ; =397
	lsr	x14, x8, #4
	umulh	x14, x14, x25
	lsr	x14, x14, #1
	msub	x8, x14, x11, x8
	ldr	w8, [x23, x8, lsl #2]
	and	w11, w13, #0x1
	mul	w11, w11, w24
	eor	w8, w11, w8
	eor	w8, w8, w12, lsr #1
	str	w8, [x23, x10]
	eor	w8, w8, w8, lsr #11
	str	x9, [x0, #2520]
	and	w9, w22, w8, lsl #7
	eor	w8, w9, w8
	and	w9, w21, w8, lsl #15
	eor	w8, w9, w8
	eor	w0, w8, w8, lsr #18
	add	x8, sp, #24                     ; =24
	bl	__Z17integer_to_stringIjENSt3__112basic_stringIcNS0_11char_traitsIcEENS0_9allocatorIcEEEET_
Ltmp226:
Lloh254:
	adrp	x1, l_.str.39@PAGE
Lloh255:
	add	x1, x1, l_.str.39@PAGEOFF
	add	x0, sp, #24                     ; =24
	bl	__ZNSt3__112basic_stringIcNS_11char_traitsIcEENS_9allocatorIcEEE6appendEPKc
Ltmp227:
; %bb.1:
	ldr	q0, [x0]
	ldr	x8, [x0, #16]
	str	x8, [sp, #64]
	str	q0, [sp, #48]
	stp	xzr, xzr, [x0, #8]
	str	xzr, [x0]
	ldr	x8, [x20, #2520]
	add	x9, x8, #1                      ; =1
	lsr	x10, x9, #4
	umulh	x10, x10, x25
	lsr	x10, x10, #1
	mov	w11, #624
	msub	x9, x10, x11, x9
	lsl	x10, x8, #2
	ldr	w12, [x23, x10]
	and	w12, w12, #0x80000000
	ldr	w13, [x23, x9, lsl #2]
	and	w14, w13, #0x7ffffffe
	orr	w12, w14, w12
	add	x8, x8, #397                    ; =397
	lsr	x14, x8, #4
	umulh	x14, x14, x25
	lsr	x14, x14, #1
	msub	x8, x14, x11, x8
	ldr	w8, [x23, x8, lsl #2]
	and	w11, w13, #0x1
	mul	w11, w11, w24
	eor	w8, w11, w8
	eor	w8, w8, w12, lsr #1
	str	w8, [x23, x10]
	eor	w8, w8, w8, lsr #11
	str	x9, [x20, #2520]
	and	w9, w22, w8, lsl #7
	eor	w8, w9, w8
	and	w9, w21, w8, lsl #15
	eor	w8, w9, w8
	eor	w0, w8, w8, lsr #18
Ltmp229:
	mov	x20, sp
	mov	x8, sp
	bl	__Z17integer_to_stringIjENSt3__112basic_stringIcNS0_11char_traitsIcEENS0_9allocatorIcEEEET_
Ltmp230:
; %bb.2:
	ldrb	w8, [sp, #23]
	sxtb	w9, w8
	ldp	x10, x11, [sp]
	cmp	w9, #0                          ; =0
	csel	x1, x10, x20, lt
	csel	x2, x11, x8, lt
Ltmp232:
	add	x0, sp, #48                     ; =48
	bl	__ZNSt3__112basic_stringIcNS_11char_traitsIcEENS_9allocatorIcEEE6appendEPKcm
Ltmp233:
; %bb.3:
	ldr	q0, [x0]
	ldr	x8, [x0, #16]
	str	x8, [x19, #16]
	str	q0, [x19]
	stp	xzr, xzr, [x0, #8]
	str	xzr, [x0]
	ldrsb	w8, [sp, #23]
	tbnz	w8, #31, LBB54_7
; %bb.4:
	ldrsb	w8, [sp, #71]
	tbnz	w8, #31, LBB54_8
LBB54_5:
	ldrsb	w8, [sp, #47]
	tbnz	w8, #31, LBB54_9
LBB54_6:
	ldp	x29, x30, [sp, #144]            ; 16-byte Folded Reload
	ldp	x20, x19, [sp, #128]            ; 16-byte Folded Reload
	ldp	x22, x21, [sp, #112]            ; 16-byte Folded Reload
	ldp	x24, x23, [sp, #96]             ; 16-byte Folded Reload
	ldp	x26, x25, [sp, #80]             ; 16-byte Folded Reload
	add	sp, sp, #160                    ; =160
	ret
LBB54_7:
	ldr	x0, [sp]
	bl	__ZdlPv
	ldrsb	w8, [sp, #71]
	tbz	w8, #31, LBB54_5
LBB54_8:
	ldr	x0, [sp, #48]
	bl	__ZdlPv
	ldrsb	w8, [sp, #47]
	tbz	w8, #31, LBB54_6
LBB54_9:
	ldr	x0, [sp, #24]
	bl	__ZdlPv
	b	LBB54_6
LBB54_10:
Ltmp234:
	mov	x19, x0
	ldrsb	w8, [sp, #23]
	tbnz	w8, #31, LBB54_15
; %bb.11:
	ldrsb	w8, [sp, #71]
	tbnz	w8, #31, LBB54_17
LBB54_12:
	ldrsb	w8, [sp, #47]
	tbz	w8, #31, LBB54_14
LBB54_13:
	ldr	x0, [sp, #24]
	bl	__ZdlPv
LBB54_14:
	mov	x0, x19
	bl	__Unwind_Resume
	brk	#0x1
LBB54_15:
	ldr	x0, [sp]
	bl	__ZdlPv
	ldrsb	w8, [sp, #71]
	tbz	w8, #31, LBB54_12
	b	LBB54_17
LBB54_16:
Ltmp231:
	mov	x19, x0
	ldrsb	w8, [sp, #71]
	tbz	w8, #31, LBB54_12
LBB54_17:
	ldr	x0, [sp, #48]
	bl	__ZdlPv
	ldrsb	w8, [sp, #47]
	tbnz	w8, #31, LBB54_13
	b	LBB54_14
LBB54_18:
Ltmp228:
	mov	x19, x0
	ldrsb	w8, [sp, #47]
	tbnz	w8, #31, LBB54_13
	b	LBB54_14
	.loh AdrpAdd	Lloh254, Lloh255
Lfunc_end16:
	.cfi_endproc
	.section	__TEXT,__gcc_except_tab
	.p2align	2
GCC_except_table54:
Lexception16:
	.byte	255                             ; @LPStart Encoding = omit
	.byte	255                             ; @TType Encoding = omit
	.byte	1                               ; Call site Encoding = uleb128
	.uleb128 Lcst_end16-Lcst_begin16
Lcst_begin16:
	.uleb128 Lfunc_begin16-Lfunc_begin16    ; >> Call Site 1 <<
	.uleb128 Ltmp226-Lfunc_begin16          ;   Call between Lfunc_begin16 and Ltmp226
	.byte	0                               ;     has no landing pad
	.byte	0                               ;   On action: cleanup
	.uleb128 Ltmp226-Lfunc_begin16          ; >> Call Site 2 <<
	.uleb128 Ltmp227-Ltmp226                ;   Call between Ltmp226 and Ltmp227
	.uleb128 Ltmp228-Lfunc_begin16          ;     jumps to Ltmp228
	.byte	0                               ;   On action: cleanup
	.uleb128 Ltmp229-Lfunc_begin16          ; >> Call Site 3 <<
	.uleb128 Ltmp230-Ltmp229                ;   Call between Ltmp229 and Ltmp230
	.uleb128 Ltmp231-Lfunc_begin16          ;     jumps to Ltmp231
	.byte	0                               ;   On action: cleanup
	.uleb128 Ltmp232-Lfunc_begin16          ; >> Call Site 4 <<
	.uleb128 Ltmp233-Ltmp232                ;   Call between Ltmp232 and Ltmp233
	.uleb128 Ltmp234-Lfunc_begin16          ;     jumps to Ltmp234
	.byte	0                               ;   On action: cleanup
	.uleb128 Ltmp233-Lfunc_begin16          ; >> Call Site 5 <<
	.uleb128 Lfunc_end16-Ltmp233            ;   Call between Ltmp233 and Lfunc_end16
	.byte	0                               ;     has no landing pad
	.byte	0                               ;   On action: cleanup
Lcst_end16:
	.p2align	2
                                        ; -- End function
	.section	__TEXT,__literal16,16byte_literals
	.p2align	4                               ; -- Begin function _ZN18bigint_int_dot_int8describeEv
lCPI55_0:
	.quad	52                              ; 0x34
	.quad	-9223372036854775744            ; 0x8000000000000040
	.section	__TEXT,__text,regular,pure_instructions
	.globl	__ZN18bigint_int_dot_int8describeEv
	.weak_def_can_be_hidden	__ZN18bigint_int_dot_int8describeEv
	.p2align	2
__ZN18bigint_int_dot_int8describeEv:    ; @_ZN18bigint_int_dot_int8describeEv
	.cfi_startproc
; %bb.0:
	stp	x20, x19, [sp, #-32]!           ; 16-byte Folded Spill
	stp	x29, x30, [sp, #16]             ; 16-byte Folded Spill
	add	x29, sp, #16                    ; =16
	.cfi_def_cfa w29, 16
	.cfi_offset w30, -8
	.cfi_offset w29, -16
	.cfi_offset w19, -24
	.cfi_offset w20, -32
	mov	x19, x8
	mov	w0, #64
	bl	__Znwm
	str	x0, [x19]
Lloh256:
	adrp	x8, lCPI55_0@PAGE
Lloh257:
	ldr	q0, [x8, lCPI55_0@PAGEOFF]
	stur	q0, [x19, #8]
	mov	w8, #29801
	movk	w8, #8563, lsl #16
	str	w8, [x0, #48]
Lloh258:
	adrp	x8, l_.str.40@PAGE
Lloh259:
	add	x8, x8, l_.str.40@PAGEOFF
	ldp	q1, q0, [x8, #16]
	ldr	q2, [x8]
	stp	q2, q1, [x0]
	str	q0, [x0, #32]
	strb	wzr, [x0, #52]
	ldp	x29, x30, [sp, #16]             ; 16-byte Folded Reload
	ldp	x20, x19, [sp], #32             ; 16-byte Folded Reload
	ret
	.loh AdrpAdd	Lloh258, Lloh259
	.loh AdrpLdr	Lloh256, Lloh257
	.cfi_endproc
                                        ; -- End function
	.globl	__ZN18bigint_int_dot_intD1Ev    ; -- Begin function _ZN18bigint_int_dot_intD1Ev
	.weak_def_can_be_hidden	__ZN18bigint_int_dot_intD1Ev
	.p2align	2
__ZN18bigint_int_dot_intD1Ev:           ; @_ZN18bigint_int_dot_intD1Ev
	.cfi_startproc
; %bb.0:
	stp	x20, x19, [sp, #-32]!           ; 16-byte Folded Spill
	stp	x29, x30, [sp, #16]             ; 16-byte Folded Spill
	add	x29, sp, #16                    ; =16
	.cfi_def_cfa w29, 16
	.cfi_offset w30, -8
	.cfi_offset w29, -16
	.cfi_offset w19, -24
	.cfi_offset w20, -32
	mov	x19, x0
Lloh260:
	adrp	x8, __ZTV18bigint_int_dot_int@GOTPAGE
Lloh261:
	ldr	x8, [x8, __ZTV18bigint_int_dot_int@GOTPAGEOFF]
	add	x8, x8, #16                     ; =16
Lloh262:
	adrp	x9, __ZTV12simple_int32@GOTPAGE
Lloh263:
	ldr	x9, [x9, __ZTV12simple_int32@GOTPAGEOFF]
	add	x9, x9, #16                     ; =16
	stp	x8, x9, [x0], #16
	bl	__ZNSt3__113random_deviceD1Ev
	mov	x0, x19
	ldp	x29, x30, [sp, #16]             ; 16-byte Folded Reload
	ldp	x20, x19, [sp], #32             ; 16-byte Folded Reload
	ret
	.loh AdrpLdrGot	Lloh262, Lloh263
	.loh AdrpLdrGot	Lloh260, Lloh261
	.cfi_endproc
                                        ; -- End function
	.globl	__ZN18bigint_int_dot_intD0Ev    ; -- Begin function _ZN18bigint_int_dot_intD0Ev
	.weak_def_can_be_hidden	__ZN18bigint_int_dot_intD0Ev
	.p2align	2
__ZN18bigint_int_dot_intD0Ev:           ; @_ZN18bigint_int_dot_intD0Ev
	.cfi_startproc
; %bb.0:
	stp	x20, x19, [sp, #-32]!           ; 16-byte Folded Spill
	stp	x29, x30, [sp, #16]             ; 16-byte Folded Spill
	add	x29, sp, #16                    ; =16
	.cfi_def_cfa w29, 16
	.cfi_offset w30, -8
	.cfi_offset w29, -16
	.cfi_offset w19, -24
	.cfi_offset w20, -32
	mov	x19, x0
Lloh264:
	adrp	x8, __ZTV18bigint_int_dot_int@GOTPAGE
Lloh265:
	ldr	x8, [x8, __ZTV18bigint_int_dot_int@GOTPAGEOFF]
	add	x8, x8, #16                     ; =16
Lloh266:
	adrp	x9, __ZTV12simple_int32@GOTPAGE
Lloh267:
	ldr	x9, [x9, __ZTV12simple_int32@GOTPAGEOFF]
	add	x9, x9, #16                     ; =16
	stp	x8, x9, [x0], #16
	bl	__ZNSt3__113random_deviceD1Ev
	mov	x0, x19
	ldp	x29, x30, [sp, #16]             ; 16-byte Folded Reload
	ldp	x20, x19, [sp], #32             ; 16-byte Folded Reload
	b	__ZdlPv
	.loh AdrpLdrGot	Lloh266, Lloh267
	.loh AdrpLdrGot	Lloh264, Lloh265
	.cfi_endproc
                                        ; -- End function
	.globl	__ZN9int_e_int10new_stringEv    ; -- Begin function _ZN9int_e_int10new_stringEv
	.weak_def_can_be_hidden	__ZN9int_e_int10new_stringEv
	.p2align	2
__ZN9int_e_int10new_stringEv:           ; @_ZN9int_e_int10new_stringEv
Lfunc_begin17:
	.cfi_startproc
	.cfi_personality 155, ___gxx_personality_v0
	.cfi_lsda 16, Lexception17
; %bb.0:
	sub	sp, sp, #112                    ; =112
	stp	x20, x19, [sp, #80]             ; 16-byte Folded Spill
	stp	x29, x30, [sp, #96]             ; 16-byte Folded Spill
	add	x29, sp, #96                    ; =96
	.cfi_def_cfa w29, 16
	.cfi_offset w30, -8
	.cfi_offset w29, -16
	.cfi_offset w19, -24
	.cfi_offset w20, -32
	mov	x20, x0
	mov	x19, x8
	add	x8, x0, #24                     ; =24
	ldr	x9, [x0, #2520]
	add	x10, x9, #1                     ; =1
	lsr	x11, x10, #4
	mov	x12, #3361
	movk	x12, #8402, lsl #16
	movk	x12, #53773, lsl #32
	movk	x12, #3360, lsl #48
	umulh	x11, x11, x12
	lsr	x11, x11, #1
	mov	w13, #624
	msub	x10, x11, x13, x10
	lsl	x11, x9, #2
	ldr	w14, [x8, x11]
	and	w14, w14, #0x80000000
	ldr	w15, [x8, x10, lsl #2]
	and	w16, w15, #0x7ffffffe
	orr	w14, w16, w14
	add	x9, x9, #397                    ; =397
	lsr	x16, x9, #4
	umulh	x12, x16, x12
	lsr	x12, x12, #1
	msub	x9, x12, x13, x9
	ldr	w9, [x8, x9, lsl #2]
	and	w12, w15, #0x1
	mov	w13, #45279
	movk	w13, #39176, lsl #16
	mul	w12, w12, w13
	eor	w9, w12, w9
	eor	w9, w9, w14, lsr #1
	str	w9, [x8, x11]
	eor	w8, w9, w9, lsr #11
	str	x10, [x0, #2520]
	mov	w9, #22144
	movk	w9, #40236, lsl #16
	and	w9, w9, w8, lsl #7
	eor	w8, w9, w8
	mov	w9, #-272236544
	and	w9, w9, w8, lsl #15
	eor	w8, w9, w8
	eor	w0, w8, w8, lsr #18
	add	x8, sp, #24                     ; =24
	bl	__Z17integer_to_stringIjENSt3__112basic_stringIcNS0_11char_traitsIcEENS0_9allocatorIcEEEET_
Ltmp235:
Lloh268:
	adrp	x1, l_.str.42@PAGE
Lloh269:
	add	x1, x1, l_.str.42@PAGEOFF
	add	x0, sp, #24                     ; =24
	bl	__ZNSt3__112basic_stringIcNS_11char_traitsIcEENS_9allocatorIcEEE6appendEPKc
Ltmp236:
; %bb.1:
	ldr	q0, [x0]
	ldr	x8, [x0, #16]
	str	x8, [sp, #64]
	str	q0, [sp, #48]
	stp	xzr, xzr, [x0, #8]
	str	xzr, [x0]
	mov	w8, #5048
	add	x0, x20, x8
	add	x1, x20, #2544                  ; =2544
Ltmp238:
	mov	x2, x0
	bl	__ZNSt3__124uniform_int_distributionIyEclINS_23mersenne_twister_engineIjLm32ELm624ELm397ELm31ELj2567483615ELm11ELj4294967295ELm7ELj2636928640ELm15ELj4022730752ELm18ELj1812433253EEEEEyRT_RKNS1_10param_typeE
Ltmp239:
; %bb.2:
Ltmp240:
	mov	x20, sp
	mov	x8, sp
	bl	__Z17integer_to_stringIyENSt3__112basic_stringIcNS0_11char_traitsIcEENS0_9allocatorIcEEEET_
Ltmp241:
; %bb.3:
	ldrb	w8, [sp, #23]
	sxtb	w9, w8
	ldp	x10, x11, [sp]
	cmp	w9, #0                          ; =0
	csel	x1, x10, x20, lt
	csel	x2, x11, x8, lt
Ltmp243:
	add	x0, sp, #48                     ; =48
	bl	__ZNSt3__112basic_stringIcNS_11char_traitsIcEENS_9allocatorIcEEE6appendEPKcm
Ltmp244:
; %bb.4:
	ldr	q0, [x0]
	ldr	x8, [x0, #16]
	str	x8, [x19, #16]
	str	q0, [x19]
	stp	xzr, xzr, [x0, #8]
	str	xzr, [x0]
	ldrsb	w8, [sp, #23]
	tbnz	w8, #31, LBB58_8
; %bb.5:
	ldrsb	w8, [sp, #71]
	tbnz	w8, #31, LBB58_9
LBB58_6:
	ldrsb	w8, [sp, #47]
	tbnz	w8, #31, LBB58_10
LBB58_7:
	ldp	x29, x30, [sp, #96]             ; 16-byte Folded Reload
	ldp	x20, x19, [sp, #80]             ; 16-byte Folded Reload
	add	sp, sp, #112                    ; =112
	ret
LBB58_8:
	ldr	x0, [sp]
	bl	__ZdlPv
	ldrsb	w8, [sp, #71]
	tbz	w8, #31, LBB58_6
LBB58_9:
	ldr	x0, [sp, #48]
	bl	__ZdlPv
	ldrsb	w8, [sp, #47]
	tbz	w8, #31, LBB58_7
LBB58_10:
	ldr	x0, [sp, #24]
	bl	__ZdlPv
	b	LBB58_7
LBB58_11:
Ltmp245:
	mov	x19, x0
	ldrsb	w8, [sp, #23]
	tbnz	w8, #31, LBB58_16
; %bb.12:
	ldrsb	w8, [sp, #71]
	tbnz	w8, #31, LBB58_19
LBB58_13:
	ldrsb	w8, [sp, #47]
	tbz	w8, #31, LBB58_15
LBB58_14:
	ldr	x0, [sp, #24]
	bl	__ZdlPv
LBB58_15:
	mov	x0, x19
	bl	__Unwind_Resume
	brk	#0x1
LBB58_16:
	ldr	x0, [sp]
	bl	__ZdlPv
	ldrsb	w8, [sp, #71]
	tbz	w8, #31, LBB58_13
	b	LBB58_19
LBB58_17:
Ltmp237:
	mov	x19, x0
	ldrsb	w8, [sp, #47]
	tbnz	w8, #31, LBB58_14
	b	LBB58_15
LBB58_18:
Ltmp242:
	mov	x19, x0
	ldrsb	w8, [sp, #71]
	tbz	w8, #31, LBB58_13
LBB58_19:
	ldr	x0, [sp, #48]
	bl	__ZdlPv
	ldrsb	w8, [sp, #47]
	tbnz	w8, #31, LBB58_14
	b	LBB58_15
	.loh AdrpAdd	Lloh268, Lloh269
Lfunc_end17:
	.cfi_endproc
	.section	__TEXT,__gcc_except_tab
	.p2align	2
GCC_except_table58:
Lexception17:
	.byte	255                             ; @LPStart Encoding = omit
	.byte	255                             ; @TType Encoding = omit
	.byte	1                               ; Call site Encoding = uleb128
	.uleb128 Lcst_end17-Lcst_begin17
Lcst_begin17:
	.uleb128 Lfunc_begin17-Lfunc_begin17    ; >> Call Site 1 <<
	.uleb128 Ltmp235-Lfunc_begin17          ;   Call between Lfunc_begin17 and Ltmp235
	.byte	0                               ;     has no landing pad
	.byte	0                               ;   On action: cleanup
	.uleb128 Ltmp235-Lfunc_begin17          ; >> Call Site 2 <<
	.uleb128 Ltmp236-Ltmp235                ;   Call between Ltmp235 and Ltmp236
	.uleb128 Ltmp237-Lfunc_begin17          ;     jumps to Ltmp237
	.byte	0                               ;   On action: cleanup
	.uleb128 Ltmp238-Lfunc_begin17          ; >> Call Site 3 <<
	.uleb128 Ltmp241-Ltmp238                ;   Call between Ltmp238 and Ltmp241
	.uleb128 Ltmp242-Lfunc_begin17          ;     jumps to Ltmp242
	.byte	0                               ;   On action: cleanup
	.uleb128 Ltmp243-Lfunc_begin17          ; >> Call Site 4 <<
	.uleb128 Ltmp244-Ltmp243                ;   Call between Ltmp243 and Ltmp244
	.uleb128 Ltmp245-Lfunc_begin17          ;     jumps to Ltmp245
	.byte	0                               ;   On action: cleanup
	.uleb128 Ltmp244-Lfunc_begin17          ; >> Call Site 5 <<
	.uleb128 Lfunc_end17-Ltmp244            ;   Call between Ltmp244 and Lfunc_end17
	.byte	0                               ;     has no landing pad
	.byte	0                               ;   On action: cleanup
Lcst_end17:
	.p2align	2
                                        ; -- End function
	.section	__TEXT,__text,regular,pure_instructions
	.globl	__ZN9int_e_int8describeEv       ; -- Begin function _ZN9int_e_int8describeEv
	.weak_def_can_be_hidden	__ZN9int_e_int8describeEv
	.p2align	2
__ZN9int_e_int8describeEv:              ; @_ZN9int_e_int8describeEv
	.cfi_startproc
; %bb.0:
	mov	w9, #15
Lloh270:
	adrp	x10, l_.str.43@PAGE
Lloh271:
	add	x10, x10, l_.str.43@PAGEOFF
	strb	w9, [x8, #23]
	ldr	x9, [x10]
	ldur	x10, [x10, #7]
	stur	x10, [x8, #7]
	str	x9, [x8]
	strb	wzr, [x8, #15]
	ret
	.loh AdrpAdd	Lloh270, Lloh271
	.cfi_endproc
                                        ; -- End function
	.globl	__ZN9int_e_intD1Ev              ; -- Begin function _ZN9int_e_intD1Ev
	.weak_def_can_be_hidden	__ZN9int_e_intD1Ev
	.p2align	2
__ZN9int_e_intD1Ev:                     ; @_ZN9int_e_intD1Ev
	.cfi_startproc
; %bb.0:
	stp	x20, x19, [sp, #-32]!           ; 16-byte Folded Spill
	stp	x29, x30, [sp, #16]             ; 16-byte Folded Spill
	add	x29, sp, #16                    ; =16
	.cfi_def_cfa w29, 16
	.cfi_offset w30, -8
	.cfi_offset w29, -16
	.cfi_offset w19, -24
	.cfi_offset w20, -32
	mov	x19, x0
Lloh272:
	adrp	x8, __ZTV9int_e_int@GOTPAGE
Lloh273:
	ldr	x8, [x8, __ZTV9int_e_int@GOTPAGEOFF]
	add	x8, x8, #16                     ; =16
	str	x8, [x0]
Lloh274:
	adrp	x8, __ZTV25integer_uniform_generator@GOTPAGE
Lloh275:
	ldr	x8, [x8, __ZTV25integer_uniform_generator@GOTPAGEOFF]
	add	x8, x8, #16                     ; =16
	str	x8, [x0, #2528]
	add	x0, x0, #2536                   ; =2536
	bl	__ZNSt3__113random_deviceD1Ev
Lloh276:
	adrp	x8, __ZTV12simple_int32@GOTPAGE
Lloh277:
	ldr	x8, [x8, __ZTV12simple_int32@GOTPAGEOFF]
	add	x8, x8, #16                     ; =16
	str	x8, [x19, #8]
	add	x0, x19, #16                    ; =16
	bl	__ZNSt3__113random_deviceD1Ev
	mov	x0, x19
	ldp	x29, x30, [sp, #16]             ; 16-byte Folded Reload
	ldp	x20, x19, [sp], #32             ; 16-byte Folded Reload
	ret
	.loh AdrpLdrGot	Lloh276, Lloh277
	.loh AdrpLdrGot	Lloh274, Lloh275
	.loh AdrpLdrGot	Lloh272, Lloh273
	.cfi_endproc
                                        ; -- End function
	.globl	__ZN9int_e_intD0Ev              ; -- Begin function _ZN9int_e_intD0Ev
	.weak_def_can_be_hidden	__ZN9int_e_intD0Ev
	.p2align	2
__ZN9int_e_intD0Ev:                     ; @_ZN9int_e_intD0Ev
	.cfi_startproc
; %bb.0:
	stp	x20, x19, [sp, #-32]!           ; 16-byte Folded Spill
	stp	x29, x30, [sp, #16]             ; 16-byte Folded Spill
	add	x29, sp, #16                    ; =16
	.cfi_def_cfa w29, 16
	.cfi_offset w30, -8
	.cfi_offset w29, -16
	.cfi_offset w19, -24
	.cfi_offset w20, -32
	mov	x19, x0
Lloh278:
	adrp	x8, __ZTV9int_e_int@GOTPAGE
Lloh279:
	ldr	x8, [x8, __ZTV9int_e_int@GOTPAGEOFF]
	add	x8, x8, #16                     ; =16
	str	x8, [x0]
Lloh280:
	adrp	x8, __ZTV25integer_uniform_generator@GOTPAGE
Lloh281:
	ldr	x8, [x8, __ZTV25integer_uniform_generator@GOTPAGEOFF]
	add	x8, x8, #16                     ; =16
	str	x8, [x0, #2528]
	add	x0, x0, #2536                   ; =2536
	bl	__ZNSt3__113random_deviceD1Ev
Lloh282:
	adrp	x8, __ZTV12simple_int32@GOTPAGE
Lloh283:
	ldr	x8, [x8, __ZTV12simple_int32@GOTPAGEOFF]
	add	x8, x8, #16                     ; =16
	str	x8, [x19, #8]
	add	x0, x19, #16                    ; =16
	bl	__ZNSt3__113random_deviceD1Ev
	mov	x0, x19
	ldp	x29, x30, [sp, #16]             ; 16-byte Folded Reload
	ldp	x20, x19, [sp], #32             ; 16-byte Folded Reload
	b	__ZdlPv
	.loh AdrpLdrGot	Lloh282, Lloh283
	.loh AdrpLdrGot	Lloh280, Lloh281
	.loh AdrpLdrGot	Lloh278, Lloh279
	.cfi_endproc
                                        ; -- End function
	.globl	__ZN25integer_uniform_generatorC2Eyy ; -- Begin function _ZN25integer_uniform_generatorC2Eyy
	.weak_def_can_be_hidden	__ZN25integer_uniform_generatorC2Eyy
	.p2align	2
__ZN25integer_uniform_generatorC2Eyy:   ; @_ZN25integer_uniform_generatorC2Eyy
Lfunc_begin18:
	.cfi_startproc
	.cfi_personality 155, ___gxx_personality_v0
	.cfi_lsda 16, Lexception18
; %bb.0:
	sub	sp, sp, #80                     ; =80
	stp	x22, x21, [sp, #32]             ; 16-byte Folded Spill
	stp	x20, x19, [sp, #48]             ; 16-byte Folded Spill
	stp	x29, x30, [sp, #64]             ; 16-byte Folded Spill
	add	x29, sp, #64                    ; =64
	.cfi_def_cfa w29, 16
	.cfi_offset w30, -8
	.cfi_offset w29, -16
	.cfi_offset w19, -24
	.cfi_offset w20, -32
	.cfi_offset w21, -40
	.cfi_offset w22, -48
	mov	x19, x2
	mov	x21, x1
	mov	x20, x0
Lloh284:
	adrp	x8, __ZTV25integer_uniform_generator@GOTPAGE
Lloh285:
	ldr	x8, [x8, __ZTV25integer_uniform_generator@GOTPAGEOFF]
	add	x8, x8, #16                     ; =16
	mov	x22, x0
	str	x8, [x22], #8
	mov	w8, #12
	strb	w8, [sp, #31]
	mov	w8, #25710
	movk	w8, #28015, lsl #16
	str	w8, [sp, #16]
Lloh286:
	adrp	x8, l_.str.29@PAGE
Lloh287:
	add	x8, x8, l_.str.29@PAGEOFF
Lloh288:
	ldr	x8, [x8]
	str	x8, [sp, #8]
	strb	wzr, [sp, #20]
Ltmp246:
	add	x1, sp, #8                      ; =8
	mov	x0, x22
	bl	__ZNSt3__113random_deviceC1ERKNS_12basic_stringIcNS_11char_traitsIcEENS_9allocatorIcEEEE
Ltmp247:
; %bb.1:
	ldrsb	w8, [sp, #31]
	tbz	w8, #31, LBB62_3
; %bb.2:
	ldr	x0, [sp, #8]
	bl	__ZdlPv
LBB62_3:
Ltmp249:
	mov	x0, x22
	bl	__ZNSt3__113random_deviceclEv
Ltmp250:
; %bb.4:
	str	w0, [x20, #16]
	mov	w8, #1
	mov	w9, #5
	mov	w10, #35173
	movk	w10, #27655, lsl #16
LBB62_5:                                ; =>This Inner Loop Header: Depth=1
	eor	w11, w0, w0, lsr #30
	mul	w11, w11, w10
	add	w0, w11, w8
	add	w11, w9, w11
	sub	w11, w11, #4                    ; =4
	str	w11, [x20, x9, lsl #2]
	add	x8, x8, #1                      ; =1
	add	x9, x9, #1                      ; =1
	cmp	x9, #628                        ; =628
	b.ne	LBB62_5
; %bb.6:
	str	xzr, [x20, #2512]
	str	x21, [x20, #2520]
	str	x19, [x20, #2528]
	mov	x0, x20
	ldp	x29, x30, [sp, #64]             ; 16-byte Folded Reload
	ldp	x20, x19, [sp, #48]             ; 16-byte Folded Reload
	ldp	x22, x21, [sp, #32]             ; 16-byte Folded Reload
	add	sp, sp, #80                     ; =80
	ret
LBB62_7:
Ltmp251:
	mov	x19, x0
	mov	x0, x22
	bl	__ZNSt3__113random_deviceD1Ev
	b	LBB62_10
LBB62_8:
Ltmp248:
	mov	x19, x0
	ldrsb	w8, [sp, #31]
	tbz	w8, #31, LBB62_10
; %bb.9:
	ldr	x0, [sp, #8]
	bl	__ZdlPv
LBB62_10:
	mov	x0, x19
	bl	__Unwind_Resume
	brk	#0x1
	.loh AdrpAddLdr	Lloh286, Lloh287, Lloh288
	.loh AdrpLdrGot	Lloh284, Lloh285
Lfunc_end18:
	.cfi_endproc
	.section	__TEXT,__gcc_except_tab
	.p2align	2
GCC_except_table62:
Lexception18:
	.byte	255                             ; @LPStart Encoding = omit
	.byte	255                             ; @TType Encoding = omit
	.byte	1                               ; Call site Encoding = uleb128
	.uleb128 Lcst_end18-Lcst_begin18
Lcst_begin18:
	.uleb128 Ltmp246-Lfunc_begin18          ; >> Call Site 1 <<
	.uleb128 Ltmp247-Ltmp246                ;   Call between Ltmp246 and Ltmp247
	.uleb128 Ltmp248-Lfunc_begin18          ;     jumps to Ltmp248
	.byte	0                               ;   On action: cleanup
	.uleb128 Ltmp249-Lfunc_begin18          ; >> Call Site 2 <<
	.uleb128 Ltmp250-Ltmp249                ;   Call between Ltmp249 and Ltmp250
	.uleb128 Ltmp251-Lfunc_begin18          ;     jumps to Ltmp251
	.byte	0                               ;   On action: cleanup
	.uleb128 Ltmp250-Lfunc_begin18          ; >> Call Site 3 <<
	.uleb128 Lfunc_end18-Ltmp250            ;   Call between Ltmp250 and Lfunc_end18
	.byte	0                               ;     has no landing pad
	.byte	0                               ;   On action: cleanup
Lcst_end18:
	.p2align	2
                                        ; -- End function
	.section	__TEXT,__text,regular,pure_instructions
	.globl	__ZN25integer_uniform_generator10new_stringEv ; -- Begin function _ZN25integer_uniform_generator10new_stringEv
	.weak_def_can_be_hidden	__ZN25integer_uniform_generator10new_stringEv
	.p2align	2
__ZN25integer_uniform_generator10new_stringEv: ; @_ZN25integer_uniform_generator10new_stringEv
	.cfi_startproc
; %bb.0:
	stp	x20, x19, [sp, #-32]!           ; 16-byte Folded Spill
	stp	x29, x30, [sp, #16]             ; 16-byte Folded Spill
	add	x29, sp, #16                    ; =16
	.cfi_def_cfa w29, 16
	.cfi_offset w30, -8
	.cfi_offset w29, -16
	.cfi_offset w19, -24
	.cfi_offset w20, -32
	mov	x19, x8
	add	x2, x0, #2520                   ; =2520
	add	x1, x0, #16                     ; =16
	mov	x0, x2
	bl	__ZNSt3__124uniform_int_distributionIyEclINS_23mersenne_twister_engineIjLm32ELm624ELm397ELm31ELj2567483615ELm11ELj4294967295ELm7ELj2636928640ELm15ELj4022730752ELm18ELj1812433253EEEEEyRT_RKNS1_10param_typeE
	mov	x8, x19
	ldp	x29, x30, [sp, #16]             ; 16-byte Folded Reload
	ldp	x20, x19, [sp], #32             ; 16-byte Folded Reload
	b	__Z17integer_to_stringIyENSt3__112basic_stringIcNS0_11char_traitsIcEENS0_9allocatorIcEEEET_
	.cfi_endproc
                                        ; -- End function
	.section	__TEXT,__literal16,16byte_literals
	.p2align	4                               ; -- Begin function _ZN25integer_uniform_generator8describeEv
lCPI64_0:
	.quad	60                              ; 0x3c
	.quad	-9223372036854775744            ; 0x8000000000000040
	.section	__TEXT,__text,regular,pure_instructions
	.globl	__ZN25integer_uniform_generator8describeEv
	.weak_def_can_be_hidden	__ZN25integer_uniform_generator8describeEv
	.p2align	2
__ZN25integer_uniform_generator8describeEv: ; @_ZN25integer_uniform_generator8describeEv
Lfunc_begin19:
	.cfi_startproc
	.cfi_personality 155, ___gxx_personality_v0
	.cfi_lsda 16, Lexception19
; %bb.0:
	sub	sp, sp, #272                    ; =272
	stp	x22, x21, [sp, #224]            ; 16-byte Folded Spill
	stp	x20, x19, [sp, #240]            ; 16-byte Folded Spill
	stp	x29, x30, [sp, #256]            ; 16-byte Folded Spill
	add	x29, sp, #256                   ; =256
	.cfi_def_cfa w29, 16
	.cfi_offset w30, -8
	.cfi_offset w29, -16
	.cfi_offset w19, -24
	.cfi_offset w20, -32
	.cfi_offset w21, -40
	.cfi_offset w22, -48
	mov	x20, x0
	mov	x19, x8
	mov	w0, #64
	bl	__Znwm
	str	x0, [sp, #104]
Lloh289:
	adrp	x8, lCPI64_0@PAGE
Lloh290:
	ldr	q0, [x8, lCPI64_0@PAGEOFF]
	stur	q0, [sp, #112]
Lloh291:
	adrp	x8, l_.str.41@PAGE
Lloh292:
	add	x8, x8, l_.str.41@PAGEOFF
	ldur	q0, [x8, #44]
	ldp	q2, q1, [x8, #16]
	ldr	q3, [x8]
	stp	q3, q2, [x0]
	str	q1, [x0, #32]
	stur	q0, [x0, #44]
	strb	wzr, [x0, #60]
	ldr	x0, [x20, #2520]
Ltmp252:
	add	x21, sp, #80                    ; =80
	add	x8, sp, #80                     ; =80
	bl	__Z17integer_to_stringIyENSt3__112basic_stringIcNS0_11char_traitsIcEENS0_9allocatorIcEEEET_
Ltmp253:
; %bb.1:
	ldrb	w8, [sp, #103]
	sxtb	w9, w8
	ldp	x10, x11, [sp, #80]
	cmp	w9, #0                          ; =0
	csel	x1, x10, x21, lt
	csel	x2, x11, x8, lt
Ltmp255:
	add	x0, sp, #104                    ; =104
	bl	__ZNSt3__112basic_stringIcNS_11char_traitsIcEENS_9allocatorIcEEE6appendEPKcm
Ltmp256:
; %bb.2:
	ldr	q0, [x0]
	ldr	x8, [x0, #16]
	str	x8, [sp, #144]
	str	q0, [sp, #128]
	stp	xzr, xzr, [x0, #8]
	str	xzr, [x0]
	mov	w8, #1
	strb	w8, [sp, #79]
	mov	w8, #44
	strh	w8, [sp, #56]
Ltmp258:
	add	x0, sp, #128                    ; =128
	add	x1, sp, #56                     ; =56
	mov	w2, #1
	bl	__ZNSt3__112basic_stringIcNS_11char_traitsIcEENS_9allocatorIcEEE6appendEPKcm
Ltmp259:
; %bb.3:
	sub	x21, x29, #96                   ; =96
	ldr	q0, [x0]
	ldr	x8, [x0, #16]
	stur	x8, [x29, #-80]
	str	q0, [x21]
	stp	xzr, xzr, [x0, #8]
	str	xzr, [x0]
	ldr	x0, [x20, #2528]
Ltmp261:
	add	x20, sp, #32                    ; =32
	add	x8, sp, #32                     ; =32
	bl	__Z17integer_to_stringIyENSt3__112basic_stringIcNS0_11char_traitsIcEENS0_9allocatorIcEEEET_
Ltmp262:
; %bb.4:
	ldrb	w8, [sp, #55]
	sxtb	w9, w8
	ldp	x10, x11, [sp, #32]
	cmp	w9, #0                          ; =0
	csel	x1, x10, x20, lt
	csel	x2, x11, x8, lt
Ltmp264:
	sub	x0, x29, #96                    ; =96
	bl	__ZNSt3__112basic_stringIcNS_11char_traitsIcEENS_9allocatorIcEEE6appendEPKcm
Ltmp265:
; %bb.5:
	ldr	q0, [x0]
	ldr	x8, [x0, #16]
	stur	x8, [x29, #-48]
	str	q0, [x21, #32]
	stp	xzr, xzr, [x0, #8]
	str	xzr, [x0]
	mov	w8, #1
	strb	w8, [sp, #31]
	mov	w8, #93
	strh	w8, [sp, #8]
Ltmp267:
	sub	x0, x29, #64                    ; =64
	add	x1, sp, #8                      ; =8
	mov	w2, #1
	bl	__ZNSt3__112basic_stringIcNS_11char_traitsIcEENS_9allocatorIcEEE6appendEPKcm
Ltmp268:
; %bb.6:
	ldr	q0, [x0]
	ldr	x8, [x0, #16]
	str	x8, [x19, #16]
	str	q0, [x19]
	stp	xzr, xzr, [x0, #8]
	str	xzr, [x0]
	ldrsb	w8, [sp, #31]
	tbnz	w8, #31, LBB64_15
; %bb.7:
	ldursb	w8, [x29, #-41]
	tbnz	w8, #31, LBB64_16
LBB64_8:
	ldrsb	w8, [sp, #55]
	tbnz	w8, #31, LBB64_17
LBB64_9:
	ldursb	w8, [x29, #-73]
	tbnz	w8, #31, LBB64_18
LBB64_10:
	ldrsb	w8, [sp, #79]
	tbnz	w8, #31, LBB64_19
LBB64_11:
	ldrsb	w8, [sp, #151]
	tbnz	w8, #31, LBB64_20
LBB64_12:
	ldrsb	w8, [sp, #103]
	tbnz	w8, #31, LBB64_21
LBB64_13:
	ldrsb	w8, [sp, #127]
	tbnz	w8, #31, LBB64_22
LBB64_14:
	ldp	x29, x30, [sp, #256]            ; 16-byte Folded Reload
	ldp	x20, x19, [sp, #240]            ; 16-byte Folded Reload
	ldp	x22, x21, [sp, #224]            ; 16-byte Folded Reload
	add	sp, sp, #272                    ; =272
	ret
LBB64_15:
	ldr	x0, [sp, #8]
	bl	__ZdlPv
	ldursb	w8, [x29, #-41]
	tbz	w8, #31, LBB64_8
LBB64_16:
	ldur	x0, [x29, #-64]
	bl	__ZdlPv
	ldrsb	w8, [sp, #55]
	tbz	w8, #31, LBB64_9
LBB64_17:
	ldr	x0, [sp, #32]
	bl	__ZdlPv
	ldursb	w8, [x29, #-73]
	tbz	w8, #31, LBB64_10
LBB64_18:
	ldur	x0, [x29, #-96]
	bl	__ZdlPv
	ldrsb	w8, [sp, #79]
	tbz	w8, #31, LBB64_11
LBB64_19:
	ldr	x0, [sp, #56]
	bl	__ZdlPv
	ldrsb	w8, [sp, #151]
	tbz	w8, #31, LBB64_12
LBB64_20:
	ldr	x0, [sp, #128]
	bl	__ZdlPv
	ldrsb	w8, [sp, #103]
	tbz	w8, #31, LBB64_13
LBB64_21:
	ldr	x0, [sp, #80]
	bl	__ZdlPv
	ldrsb	w8, [sp, #127]
	tbz	w8, #31, LBB64_14
LBB64_22:
	ldr	x0, [sp, #104]
	bl	__ZdlPv
	b	LBB64_14
LBB64_23:
Ltmp269:
	mov	x19, x0
	ldrsb	w8, [sp, #31]
	tbnz	w8, #31, LBB64_33
; %bb.24:
	ldursb	w8, [x29, #-41]
	tbnz	w8, #31, LBB64_34
LBB64_25:
	ldrsb	w8, [sp, #55]
	tbnz	w8, #31, LBB64_36
LBB64_26:
	ldursb	w8, [x29, #-73]
	tbnz	w8, #31, LBB64_38
LBB64_27:
	ldrsb	w8, [sp, #79]
	tbnz	w8, #31, LBB64_40
LBB64_28:
	ldrsb	w8, [sp, #151]
	tbnz	w8, #31, LBB64_41
LBB64_29:
	ldrsb	w8, [sp, #103]
	tbnz	w8, #31, LBB64_43
LBB64_30:
	ldrsb	w8, [sp, #127]
	tbz	w8, #31, LBB64_32
LBB64_31:
	ldr	x0, [sp, #104]
	bl	__ZdlPv
LBB64_32:
	mov	x0, x19
	bl	__Unwind_Resume
	brk	#0x1
LBB64_33:
	ldr	x0, [sp, #8]
	bl	__ZdlPv
	ldursb	w8, [x29, #-41]
	tbz	w8, #31, LBB64_25
LBB64_34:
	ldur	x0, [x29, #-64]
	bl	__ZdlPv
	ldrsb	w8, [sp, #55]
	tbz	w8, #31, LBB64_26
	b	LBB64_36
LBB64_35:
Ltmp266:
	mov	x19, x0
	ldrsb	w8, [sp, #55]
	tbz	w8, #31, LBB64_26
LBB64_36:
	ldr	x0, [sp, #32]
	bl	__ZdlPv
	ldursb	w8, [x29, #-73]
	tbz	w8, #31, LBB64_27
	b	LBB64_38
LBB64_37:
Ltmp263:
	mov	x19, x0
	ldursb	w8, [x29, #-73]
	tbz	w8, #31, LBB64_27
LBB64_38:
	ldur	x0, [x29, #-96]
	bl	__ZdlPv
	ldrsb	w8, [sp, #79]
	tbz	w8, #31, LBB64_28
	b	LBB64_40
LBB64_39:
Ltmp260:
	mov	x19, x0
	ldrsb	w8, [sp, #79]
	tbz	w8, #31, LBB64_28
LBB64_40:
	ldr	x0, [sp, #56]
	bl	__ZdlPv
	ldrsb	w8, [sp, #151]
	tbz	w8, #31, LBB64_29
LBB64_41:
	ldr	x0, [sp, #128]
	bl	__ZdlPv
	ldrsb	w8, [sp, #103]
	tbz	w8, #31, LBB64_30
	b	LBB64_43
LBB64_42:
Ltmp257:
	mov	x19, x0
	ldrsb	w8, [sp, #103]
	tbz	w8, #31, LBB64_30
LBB64_43:
	ldr	x0, [sp, #80]
	bl	__ZdlPv
	ldrsb	w8, [sp, #127]
	tbnz	w8, #31, LBB64_31
	b	LBB64_32
LBB64_44:
Ltmp254:
	mov	x19, x0
	ldrsb	w8, [sp, #127]
	tbnz	w8, #31, LBB64_31
	b	LBB64_32
	.loh AdrpAdd	Lloh291, Lloh292
	.loh AdrpAdrp	Lloh289, Lloh291
	.loh AdrpLdr	Lloh289, Lloh290
Lfunc_end19:
	.cfi_endproc
	.section	__TEXT,__gcc_except_tab
	.p2align	2
GCC_except_table64:
Lexception19:
	.byte	255                             ; @LPStart Encoding = omit
	.byte	255                             ; @TType Encoding = omit
	.byte	1                               ; Call site Encoding = uleb128
	.uleb128 Lcst_end19-Lcst_begin19
Lcst_begin19:
	.uleb128 Lfunc_begin19-Lfunc_begin19    ; >> Call Site 1 <<
	.uleb128 Ltmp252-Lfunc_begin19          ;   Call between Lfunc_begin19 and Ltmp252
	.byte	0                               ;     has no landing pad
	.byte	0                               ;   On action: cleanup
	.uleb128 Ltmp252-Lfunc_begin19          ; >> Call Site 2 <<
	.uleb128 Ltmp253-Ltmp252                ;   Call between Ltmp252 and Ltmp253
	.uleb128 Ltmp254-Lfunc_begin19          ;     jumps to Ltmp254
	.byte	0                               ;   On action: cleanup
	.uleb128 Ltmp255-Lfunc_begin19          ; >> Call Site 3 <<
	.uleb128 Ltmp256-Ltmp255                ;   Call between Ltmp255 and Ltmp256
	.uleb128 Ltmp257-Lfunc_begin19          ;     jumps to Ltmp257
	.byte	0                               ;   On action: cleanup
	.uleb128 Ltmp258-Lfunc_begin19          ; >> Call Site 4 <<
	.uleb128 Ltmp259-Ltmp258                ;   Call between Ltmp258 and Ltmp259
	.uleb128 Ltmp260-Lfunc_begin19          ;     jumps to Ltmp260
	.byte	0                               ;   On action: cleanup
	.uleb128 Ltmp261-Lfunc_begin19          ; >> Call Site 5 <<
	.uleb128 Ltmp262-Ltmp261                ;   Call between Ltmp261 and Ltmp262
	.uleb128 Ltmp263-Lfunc_begin19          ;     jumps to Ltmp263
	.byte	0                               ;   On action: cleanup
	.uleb128 Ltmp264-Lfunc_begin19          ; >> Call Site 6 <<
	.uleb128 Ltmp265-Ltmp264                ;   Call between Ltmp264 and Ltmp265
	.uleb128 Ltmp266-Lfunc_begin19          ;     jumps to Ltmp266
	.byte	0                               ;   On action: cleanup
	.uleb128 Ltmp267-Lfunc_begin19          ; >> Call Site 7 <<
	.uleb128 Ltmp268-Ltmp267                ;   Call between Ltmp267 and Ltmp268
	.uleb128 Ltmp269-Lfunc_begin19          ;     jumps to Ltmp269
	.byte	0                               ;   On action: cleanup
	.uleb128 Ltmp268-Lfunc_begin19          ; >> Call Site 8 <<
	.uleb128 Lfunc_end19-Ltmp268            ;   Call between Ltmp268 and Lfunc_end19
	.byte	0                               ;     has no landing pad
	.byte	0                               ;   On action: cleanup
Lcst_end19:
	.p2align	2
                                        ; -- End function
	.section	__TEXT,__text,regular,pure_instructions
	.globl	__ZN25integer_uniform_generatorD1Ev ; -- Begin function _ZN25integer_uniform_generatorD1Ev
	.weak_def_can_be_hidden	__ZN25integer_uniform_generatorD1Ev
	.p2align	2
__ZN25integer_uniform_generatorD1Ev:    ; @_ZN25integer_uniform_generatorD1Ev
	.cfi_startproc
; %bb.0:
	stp	x20, x19, [sp, #-32]!           ; 16-byte Folded Spill
	stp	x29, x30, [sp, #16]             ; 16-byte Folded Spill
	add	x29, sp, #16                    ; =16
	.cfi_def_cfa w29, 16
	.cfi_offset w30, -8
	.cfi_offset w29, -16
	.cfi_offset w19, -24
	.cfi_offset w20, -32
	mov	x19, x0
Lloh293:
	adrp	x8, __ZTV25integer_uniform_generator@GOTPAGE
Lloh294:
	ldr	x8, [x8, __ZTV25integer_uniform_generator@GOTPAGEOFF]
	add	x8, x8, #16                     ; =16
	str	x8, [x0], #8
	bl	__ZNSt3__113random_deviceD1Ev
	mov	x0, x19
	ldp	x29, x30, [sp, #16]             ; 16-byte Folded Reload
	ldp	x20, x19, [sp], #32             ; 16-byte Folded Reload
	ret
	.loh AdrpLdrGot	Lloh293, Lloh294
	.cfi_endproc
                                        ; -- End function
	.globl	__ZN25integer_uniform_generatorD0Ev ; -- Begin function _ZN25integer_uniform_generatorD0Ev
	.weak_def_can_be_hidden	__ZN25integer_uniform_generatorD0Ev
	.p2align	2
__ZN25integer_uniform_generatorD0Ev:    ; @_ZN25integer_uniform_generatorD0Ev
	.cfi_startproc
; %bb.0:
	stp	x20, x19, [sp, #-32]!           ; 16-byte Folded Spill
	stp	x29, x30, [sp, #16]             ; 16-byte Folded Spill
	add	x29, sp, #16                    ; =16
	.cfi_def_cfa w29, 16
	.cfi_offset w30, -8
	.cfi_offset w29, -16
	.cfi_offset w19, -24
	.cfi_offset w20, -32
	mov	x19, x0
Lloh295:
	adrp	x8, __ZTV25integer_uniform_generator@GOTPAGE
Lloh296:
	ldr	x8, [x8, __ZTV25integer_uniform_generator@GOTPAGEOFF]
	add	x8, x8, #16                     ; =16
	str	x8, [x0], #8
	bl	__ZNSt3__113random_deviceD1Ev
	mov	x0, x19
	ldp	x29, x30, [sp, #16]             ; 16-byte Folded Reload
	ldp	x20, x19, [sp], #32             ; 16-byte Folded Reload
	b	__ZdlPv
	.loh AdrpLdrGot	Lloh295, Lloh296
	.cfi_endproc
                                        ; -- End function
	.section	__TEXT,__literal16,16byte_literals
	.p2align	4                               ; -- Begin function _ZNSt3__124uniform_int_distributionIyEclINS_23mersenne_twister_engineIjLm32ELm624ELm397ELm31ELj2567483615ELm11ELj4294967295ELm7ELj2636928640ELm15ELj4022730752ELm18ELj1812433253EEEEEyRT_RKNS1_10param_typeE
lCPI67_0:
	.quad	64                              ; 0x40
	.quad	32                              ; 0x20
lCPI67_1:
	.quad	4294967296                      ; 0x100000000
	.quad	0                               ; 0x0
	.section	__TEXT,__text,regular,pure_instructions
	.globl	__ZNSt3__124uniform_int_distributionIyEclINS_23mersenne_twister_engineIjLm32ELm624ELm397ELm31ELj2567483615ELm11ELj4294967295ELm7ELj2636928640ELm15ELj4022730752ELm18ELj1812433253EEEEEyRT_RKNS1_10param_typeE
	.weak_def_can_be_hidden	__ZNSt3__124uniform_int_distributionIyEclINS_23mersenne_twister_engineIjLm32ELm624ELm397ELm31ELj2567483615ELm11ELj4294967295ELm7ELj2636928640ELm15ELj4022730752ELm18ELj1812433253EEEEEyRT_RKNS1_10param_typeE
	.p2align	2
__ZNSt3__124uniform_int_distributionIyEclINS_23mersenne_twister_engineIjLm32ELm624ELm397ELm31ELj2567483615ELm11ELj4294967295ELm7ELj2636928640ELm15ELj4022730752ELm18ELj1812433253EEEEEyRT_RKNS1_10param_typeE: ; @_ZNSt3__124uniform_int_distributionIyEclINS_23mersenne_twister_engineIjLm32ELm624ELm397ELm31ELj2567483615ELm11ELj4294967295ELm7ELj2636928640ELm15ELj4022730752ELm18ELj1812433253EEEEEyRT_RKNS1_10param_typeE
	.cfi_startproc
; %bb.0:
	sub	sp, sp, #96                     ; =96
	stp	x20, x19, [sp, #64]             ; 16-byte Folded Spill
	stp	x29, x30, [sp, #80]             ; 16-byte Folded Spill
	add	x29, sp, #80                    ; =80
	.cfi_def_cfa w29, 16
	.cfi_offset w30, -8
	.cfi_offset w29, -16
	.cfi_offset w19, -24
	.cfi_offset w20, -32
	ldp	x0, x8, [x2]
	subs	x8, x8, x0
	b.eq	LBB67_13
; %bb.1:
	add	x20, x8, #1                     ; =1
	cbz	x20, LBB67_7
; %bb.2:
	mov	x19, x2
	clz	x8, x20
	lsl	x9, x20, x8
	tst	x9, #0x7fffffffffffffff
	mov	w9, #63
	cinc	x9, x9, ne
	sub	x9, x9, x8
	stp	x1, x9, [sp]
	lsr	x8, x9, #5
	tst	x9, #0x1f
	cinc	x10, x8, ne
	udiv	x8, x9, x10
	stp	x8, x10, [sp, #16]
	mov	x11, #-1
	lsl	x11, x11, x8
	and	x11, x11, #0x100000000
	cmp	x8, #64                         ; =64
	csel	x11, x11, xzr, lo
	str	x11, [sp, #40]
	mov	x12, #4294967296
	sub	x12, x12, x11
	udiv	x11, x11, x10
	cmp	x12, x11
	b.ls	LBB67_5
; %bb.3:
	add	x10, x10, #1                    ; =1
	udiv	x8, x9, x10
	stp	x8, x10, [sp, #16]
	cmp	x8, #63                         ; =63
	b.hi	LBB67_9
; %bb.4:
	mov	x11, #-1
	lsl	x11, x11, x8
	and	x11, x11, #0x100000000
	str	x11, [sp, #40]
LBB67_5:
	udiv	x11, x9, x10
	neg	x9, x9
	madd	x9, x11, x10, x9
	add	x9, x10, x9
	str	x9, [sp, #32]
	cmp	x8, #62                         ; =62
	b.hi	LBB67_8
; %bb.6:
	add	x9, x8, #1                      ; =1
	mov	x10, #-1
	lsl	x9, x10, x9
	and	x11, x9, #0x100000000
	b	LBB67_10
LBB67_7:
	str	x1, [sp]
Lloh297:
	adrp	x8, lCPI67_0@PAGE
Lloh298:
	ldr	q0, [x8, lCPI67_0@PAGEOFF]
	stur	q0, [sp, #8]
	mov	w8, #2
	dup.2d	v0, x8
	stur	q0, [sp, #24]
Lloh299:
	adrp	x8, lCPI67_1@PAGE
Lloh300:
	ldr	q0, [x8, lCPI67_1@PAGEOFF]
	stur	q0, [sp, #40]
	movi.2d	v0, #0xffffffffffffffff
	str	d0, [sp, #56]
	mov	x0, sp
	bl	__ZNSt3__125__independent_bits_engineINS_23mersenne_twister_engineIjLm32ELm624ELm397ELm31ELj2567483615ELm11ELj4294967295ELm7ELj2636928640ELm15ELj4022730752ELm18ELj1812433253EEEyE6__evalENS_17integral_constantIbLb1EEE
	b	LBB67_13
LBB67_8:
	mov	x11, #0
	b	LBB67_10
LBB67_9:
	mov	x11, #0
	neg	x9, x9
	madd	x9, x8, x10, x9
	add	x9, x10, x9
	stp	x9, xzr, [sp, #32]
LBB67_10:
	str	x11, [sp, #48]
	neg	w9, w8
	mov	w10, #-1
	lsr	w9, w10, w9
	cmp	x8, #0                          ; =0
	csel	w9, wzr, w9, eq
	mov	w11, #31
	sub	w11, w11, w8
	lsr	w10, w10, w11
	cmp	x8, #31                         ; =31
	csinv	w8, w10, wzr, lo
	stp	w9, w8, [sp, #56]
LBB67_11:                               ; =>This Inner Loop Header: Depth=1
	mov	x0, sp
	bl	__ZNSt3__125__independent_bits_engineINS_23mersenne_twister_engineIjLm32ELm624ELm397ELm31ELj2567483615ELm11ELj4294967295ELm7ELj2636928640ELm15ELj4022730752ELm18ELj1812433253EEEyE6__evalENS_17integral_constantIbLb1EEE
	cmp	x0, x20
	b.hs	LBB67_11
; %bb.12:
	ldr	x8, [x19]
	add	x0, x8, x0
LBB67_13:
	ldp	x29, x30, [sp, #80]             ; 16-byte Folded Reload
	ldp	x20, x19, [sp, #64]             ; 16-byte Folded Reload
	add	sp, sp, #96                     ; =96
	ret
	.loh AdrpLdr	Lloh299, Lloh300
	.loh AdrpLdr	Lloh297, Lloh298
	.cfi_endproc
                                        ; -- End function
	.globl	__ZNSt3__125__independent_bits_engineINS_23mersenne_twister_engineIjLm32ELm624ELm397ELm31ELj2567483615ELm11ELj4294967295ELm7ELj2636928640ELm15ELj4022730752ELm18ELj1812433253EEEyE6__evalENS_17integral_constantIbLb1EEE ; -- Begin function _ZNSt3__125__independent_bits_engineINS_23mersenne_twister_engineIjLm32ELm624ELm397ELm31ELj2567483615ELm11ELj4294967295ELm7ELj2636928640ELm15ELj4022730752ELm18ELj1812433253EEEyE6__evalENS_17integral_constantIbLb1EEE
	.weak_def_can_be_hidden	__ZNSt3__125__independent_bits_engineINS_23mersenne_twister_engineIjLm32ELm624ELm397ELm31ELj2567483615ELm11ELj4294967295ELm7ELj2636928640ELm15ELj4022730752ELm18ELj1812433253EEEyE6__evalENS_17integral_constantIbLb1EEE
	.p2align	2
__ZNSt3__125__independent_bits_engineINS_23mersenne_twister_engineIjLm32ELm624ELm397ELm31ELj2567483615ELm11ELj4294967295ELm7ELj2636928640ELm15ELj4022730752ELm18ELj1812433253EEEyE6__evalENS_17integral_constantIbLb1EEE: ; @_ZNSt3__125__independent_bits_engineINS_23mersenne_twister_engineIjLm32ELm624ELm397ELm31ELj2567483615ELm11ELj4294967295ELm7ELj2636928640ELm15ELj4022730752ELm18ELj1812433253EEEyE6__evalENS_17integral_constantIbLb1EEE
	.cfi_startproc
; %bb.0:
	stp	x20, x19, [sp, #-16]!           ; 16-byte Folded Spill
	.cfi_def_cfa_offset 16
	.cfi_offset w19, -8
	.cfi_offset w20, -16
	mov	w9, #-272236544
	mov	w10, #22144
	movk	w10, #40236, lsl #16
	mov	w11, #45279
	movk	w11, #39176, lsl #16
	ldr	x12, [x0, #32]
	cbz	x12, LBB68_5
; %bb.1:
	mov	x8, #0
	mov	x14, #0
	ldr	x13, [x0]
	ldr	x15, [x0, #40]
	ldr	x16, [x0, #16]
	ldr	x2, [x13, #2496]
	mov	x17, #3361
	movk	x17, #8402, lsl #16
	movk	x17, #53773, lsl #32
	movk	x17, #3360, lsl #48
	mov	w1, #624
LBB68_2:                                ; =>This Inner Loop Header: Depth=1
	add	x3, x2, #1                      ; =1
	lsr	x4, x3, #4
	umulh	x4, x4, x17
	lsr	x4, x4, #1
	lsl	x5, x2, #2
	add	x6, x2, #397                    ; =397
	msub	x2, x4, x1, x3
	ldr	w3, [x13, x5]
	and	w3, w3, #0x80000000
	ldr	w4, [x13, x2, lsl #2]
	and	w7, w4, #0x7ffffffe
	orr	w3, w7, w3
	lsr	x7, x6, #4
	umulh	x7, x7, x17
	lsr	x7, x7, #1
	msub	x6, x7, x1, x6
	ldr	w6, [x13, x6, lsl #2]
	and	w4, w4, #0x1
	mul	w4, w4, w11
	eor	w4, w4, w6
	eor	w3, w4, w3, lsr #1
	str	w3, [x13, x5]
	eor	w3, w3, w3, lsr #11
	and	w4, w10, w3, lsl #7
	eor	w3, w4, w3
	and	w4, w9, w3, lsl #15
	eor	w3, w4, w3
	eor	w3, w3, w3, lsr #18
	cmp	x15, x3
	b.ls	LBB68_2
; %bb.3:                                ;   in Loop: Header=BB68_2 Depth=1
	lsl	x8, x8, x16
	cmp	x16, #64                        ; =64
	csel	x8, x8, xzr, lo
	ldr	w4, [x0, #56]
	mov	w3, w3
	and	x3, x4, x3
	add	x8, x8, x3
	add	x14, x14, #1                    ; =1
	cmp	x14, x12
	b.ne	LBB68_2
; %bb.4:
	str	x2, [x13, #2496]
	b	LBB68_6
LBB68_5:
	mov	x8, #0
LBB68_6:
	ldr	x13, [x0, #24]
	cmp	x12, x13
	b.hs	LBB68_11
; %bb.7:
	ldr	x14, [x0]
	ldr	x15, [x0, #48]
	ldr	x16, [x0, #16]
	add	x17, x16, #1                    ; =1
	ldr	x3, [x14, #2496]
	mov	x1, #3361
	movk	x1, #8402, lsl #16
	movk	x1, #53773, lsl #32
	movk	x1, #3360, lsl #48
	mov	w2, #624
LBB68_8:                                ; =>This Inner Loop Header: Depth=1
	add	x4, x3, #1                      ; =1
	lsr	x5, x4, #4
	umulh	x5, x5, x1
	lsr	x5, x5, #1
	lsl	x6, x3, #2
	add	x7, x3, #397                    ; =397
	msub	x3, x5, x2, x4
	ldr	w4, [x14, x6]
	and	w4, w4, #0x80000000
	ldr	w5, [x14, x3, lsl #2]
	and	w19, w5, #0x7ffffffe
	orr	w4, w19, w4
	lsr	x19, x7, #4
	umulh	x19, x19, x1
	lsr	x19, x19, #1
	msub	x7, x19, x2, x7
	ldr	w7, [x14, x7, lsl #2]
	and	w5, w5, #0x1
	mul	w5, w5, w11
	eor	w5, w5, w7
	eor	w4, w5, w4, lsr #1
	str	w4, [x14, x6]
	eor	w4, w4, w4, lsr #11
	and	w5, w10, w4, lsl #7
	eor	w4, w5, w4
	and	w5, w9, w4, lsl #15
	eor	w4, w5, w4
	eor	w4, w4, w4, lsr #18
	cmp	x15, x4
	b.ls	LBB68_8
; %bb.9:                                ;   in Loop: Header=BB68_8 Depth=1
	lsl	x8, x8, x17
	cmp	x16, #63                        ; =63
	csel	x8, x8, xzr, lo
	ldr	w5, [x0, #60]
	mov	w4, w4
	and	x4, x5, x4
	add	x8, x8, x4
	add	x12, x12, #1                    ; =1
	cmp	x12, x13
	b.lo	LBB68_8
; %bb.10:
	str	x3, [x14, #2496]
LBB68_11:
	mov	x0, x8
	ldp	x20, x19, [sp], #16             ; 16-byte Folded Reload
	ret
	.cfi_endproc
                                        ; -- End function
	.globl	__ZN8big_ints10new_stringEv     ; -- Begin function _ZN8big_ints10new_stringEv
	.weak_def_can_be_hidden	__ZN8big_ints10new_stringEv
	.p2align	2
__ZN8big_ints10new_stringEv:            ; @_ZN8big_ints10new_stringEv
Lfunc_begin20:
	.cfi_startproc
	.cfi_personality 155, ___gxx_personality_v0
	.cfi_lsda 16, Lexception20
; %bb.0:
	sub	sp, sp, #192                    ; =192
	stp	x26, x25, [sp, #112]            ; 16-byte Folded Spill
	stp	x24, x23, [sp, #128]            ; 16-byte Folded Spill
	stp	x22, x21, [sp, #144]            ; 16-byte Folded Spill
	stp	x20, x19, [sp, #160]            ; 16-byte Folded Spill
	stp	x29, x30, [sp, #176]            ; 16-byte Folded Spill
	add	x29, sp, #176                   ; =176
	.cfi_def_cfa w29, 16
	.cfi_offset w30, -8
	.cfi_offset w29, -16
	.cfi_offset w19, -24
	.cfi_offset w20, -32
	.cfi_offset w21, -40
	.cfi_offset w22, -48
	.cfi_offset w23, -56
	.cfi_offset w24, -64
	.cfi_offset w25, -72
	.cfi_offset w26, -80
	mov	x20, x0
	mov	x19, x8
	mov	x21, #262645840084992
	movk	x21, #65527, lsl #48
	mov	x23, #6633
	movk	x23, #43366, lsl #16
	movk	x23, #28506, lsl #32
	movk	x23, #46338, lsl #48
	mov	x22, #3987079168
	movk	x22, #32767, lsl #32
	movk	x22, #29142, lsl #48
	add	x24, x0, #24                    ; =24
	ldr	x8, [x0, #2520]
	add	x9, x8, #1                      ; =1
	lsr	x10, x9, #3
	mov	x25, #3361
	movk	x25, #8402, lsl #16
	movk	x25, #53773, lsl #32
	movk	x25, #3360, lsl #48
	umulh	x10, x10, x25
	lsr	x10, x10, #1
	mov	w26, #312
	msub	x9, x10, x26, x9
	lsl	x10, x8, #3
	ldr	x11, [x24, x10]
	and	x11, x11, #0xffffffff80000000
	ldr	x12, [x24, x9, lsl #3]
	and	x13, x12, #0x7ffffffe
	orr	x11, x13, x11
	add	x8, x8, #156                    ; =156
	lsr	x13, x8, #3
	umulh	x13, x13, x25
	lsr	x13, x13, #1
	msub	x8, x13, x26, x8
	ldr	x8, [x24, x8, lsl #3]
	and	x12, x12, #0x1
	mul	x12, x12, x23
	eor	x8, x12, x8
	eor	x8, x8, x11, lsr #1
	str	x8, [x24, x10]
	lsr	x10, x8, #29
	and	x10, x10, #0x5555555555555555
	eor	x8, x10, x8
	str	x9, [x0, #2520]
	and	x9, x22, x8, lsl #17
	eor	x8, x9, x8
	and	x9, x21, x8, lsl #37
	eor	x8, x9, x8
	eor	x0, x8, x8, lsr #43
	add	x8, sp, #56                     ; =56
	bl	__Z17integer_to_stringIyENSt3__112basic_stringIcNS0_11char_traitsIcEENS0_9allocatorIcEEEET_
	ldr	x8, [x20, #2520]
	add	x9, x8, #1                      ; =1
	lsr	x10, x9, #3
	umulh	x10, x10, x25
	lsr	x10, x10, #1
	msub	x9, x10, x26, x9
	lsl	x10, x8, #3
	ldr	x11, [x24, x10]
	and	x11, x11, #0xffffffff80000000
	ldr	x12, [x24, x9, lsl #3]
	and	x13, x12, #0x7ffffffe
	orr	x11, x13, x11
	add	x8, x8, #156                    ; =156
	lsr	x13, x8, #3
	umulh	x13, x13, x25
	lsr	x13, x13, #1
	msub	x8, x13, x26, x8
	ldr	x8, [x24, x8, lsl #3]
	and	x12, x12, #0x1
	mul	x12, x12, x23
	eor	x8, x12, x8
	eor	x8, x8, x11, lsr #1
	str	x8, [x24, x10]
	lsr	x10, x8, #29
	and	x10, x10, #0x5555555555555555
	eor	x8, x10, x8
	str	x9, [x20, #2520]
	and	x9, x22, x8, lsl #17
	eor	x8, x9, x8
	and	x9, x21, x8, lsl #37
	eor	x8, x9, x8
	eor	x0, x8, x8, lsr #43
Ltmp270:
	add	x24, sp, #32                    ; =32
	add	x8, sp, #32                     ; =32
	bl	__Z17integer_to_stringIyENSt3__112basic_stringIcNS0_11char_traitsIcEENS0_9allocatorIcEEEET_
Ltmp271:
; %bb.1:
	ldrb	w8, [sp, #55]
	sxtb	w9, w8
	ldp	x10, x11, [sp, #32]
	cmp	w9, #0                          ; =0
	csel	x1, x10, x24, lt
	csel	x2, x11, x8, lt
Ltmp273:
	add	x0, sp, #56                     ; =56
	bl	__ZNSt3__112basic_stringIcNS_11char_traitsIcEENS_9allocatorIcEEE6appendEPKcm
Ltmp274:
; %bb.2:
	mov	x8, #21845
	movk	x8, #21845, lsl #16
	movk	x8, #5, lsl #32
	ldr	q0, [x0]
	ldr	x9, [x0, #16]
	str	x9, [sp, #96]
	str	q0, [sp, #80]
	stp	xzr, xzr, [x0, #8]
	str	xzr, [x0]
	ldr	x9, [x20, #2520]
	add	x10, x9, #1                     ; =1
	lsr	x11, x10, #3
	mov	x12, #3361
	movk	x12, #8402, lsl #16
	movk	x12, #53773, lsl #32
	movk	x12, #3360, lsl #48
	umulh	x11, x11, x12
	lsr	x11, x11, #1
	mov	w13, #312
	msub	x10, x11, x13, x10
	add	x11, x20, #24                   ; =24
	lsl	x14, x9, #3
	ldr	x15, [x11, x14]
	ldr	x16, [x11, x10, lsl #3]
	and	x15, x15, #0xffffffff80000000
	and	x17, x16, #0x7ffffffe
	orr	x15, x17, x15
	add	x9, x9, #156                    ; =156
	lsr	x17, x9, #3
	umulh	x12, x17, x12
	lsr	x12, x12, #1
	msub	x9, x12, x13, x9
	ldr	x9, [x11, x9, lsl #3]
	and	x12, x16, #0x1
	mul	x12, x12, x23
	eor	x9, x12, x9
	eor	x9, x9, x15, lsr #1
	str	x9, [x11, x14]
	and	x8, x8, x9, lsr #29
	eor	x8, x8, x9
	str	x10, [x20, #2520]
	and	x9, x22, x8, lsl #17
	eor	x8, x9, x8
	and	x9, x21, x8, lsl #37
	eor	x8, x9, x8
	eor	x0, x8, x8, lsr #43
Ltmp276:
	add	x20, sp, #8                     ; =8
	add	x8, sp, #8                      ; =8
	bl	__Z17integer_to_stringIyENSt3__112basic_stringIcNS0_11char_traitsIcEENS0_9allocatorIcEEEET_
Ltmp277:
; %bb.3:
	ldrb	w8, [sp, #31]
	sxtb	w9, w8
	ldp	x10, x11, [sp, #8]
	cmp	w9, #0                          ; =0
	csel	x1, x10, x20, lt
	csel	x2, x11, x8, lt
Ltmp279:
	add	x0, sp, #80                     ; =80
	bl	__ZNSt3__112basic_stringIcNS_11char_traitsIcEENS_9allocatorIcEEE6appendEPKcm
Ltmp280:
; %bb.4:
	ldr	q0, [x0]
	ldr	x8, [x0, #16]
	str	x8, [x19, #16]
	str	q0, [x19]
	stp	xzr, xzr, [x0, #8]
	str	xzr, [x0]
	ldrsb	w8, [sp, #31]
	tbnz	w8, #31, LBB69_9
; %bb.5:
	ldrsb	w8, [sp, #103]
	tbnz	w8, #31, LBB69_10
LBB69_6:
	ldrsb	w8, [sp, #55]
	tbnz	w8, #31, LBB69_11
LBB69_7:
	ldrsb	w8, [sp, #79]
	tbnz	w8, #31, LBB69_12
LBB69_8:
	ldp	x29, x30, [sp, #176]            ; 16-byte Folded Reload
	ldp	x20, x19, [sp, #160]            ; 16-byte Folded Reload
	ldp	x22, x21, [sp, #144]            ; 16-byte Folded Reload
	ldp	x24, x23, [sp, #128]            ; 16-byte Folded Reload
	ldp	x26, x25, [sp, #112]            ; 16-byte Folded Reload
	add	sp, sp, #192                    ; =192
	ret
LBB69_9:
	ldr	x0, [sp, #8]
	bl	__ZdlPv
	ldrsb	w8, [sp, #103]
	tbz	w8, #31, LBB69_6
LBB69_10:
	ldr	x0, [sp, #80]
	bl	__ZdlPv
	ldrsb	w8, [sp, #55]
	tbz	w8, #31, LBB69_7
LBB69_11:
	ldr	x0, [sp, #32]
	bl	__ZdlPv
	ldrsb	w8, [sp, #79]
	tbz	w8, #31, LBB69_8
LBB69_12:
	ldr	x0, [sp, #56]
	bl	__ZdlPv
	b	LBB69_8
LBB69_13:
Ltmp281:
	mov	x19, x0
	ldrsb	w8, [sp, #31]
	tbnz	w8, #31, LBB69_19
; %bb.14:
	ldrsb	w8, [sp, #103]
	tbnz	w8, #31, LBB69_21
LBB69_15:
	ldrsb	w8, [sp, #55]
	tbnz	w8, #31, LBB69_23
LBB69_16:
	ldrsb	w8, [sp, #79]
	tbz	w8, #31, LBB69_18
LBB69_17:
	ldr	x0, [sp, #56]
	bl	__ZdlPv
LBB69_18:
	mov	x0, x19
	bl	__Unwind_Resume
	brk	#0x1
LBB69_19:
	ldr	x0, [sp, #8]
	bl	__ZdlPv
	ldrsb	w8, [sp, #103]
	tbz	w8, #31, LBB69_15
	b	LBB69_21
LBB69_20:
Ltmp278:
	mov	x19, x0
	ldrsb	w8, [sp, #103]
	tbz	w8, #31, LBB69_15
LBB69_21:
	ldr	x0, [sp, #80]
	bl	__ZdlPv
	ldrsb	w8, [sp, #55]
	tbz	w8, #31, LBB69_16
	b	LBB69_23
LBB69_22:
Ltmp275:
	mov	x19, x0
	ldrsb	w8, [sp, #55]
	tbz	w8, #31, LBB69_16
LBB69_23:
	ldr	x0, [sp, #32]
	bl	__ZdlPv
	ldrsb	w8, [sp, #79]
	tbnz	w8, #31, LBB69_17
	b	LBB69_18
LBB69_24:
Ltmp272:
	mov	x19, x0
	ldrsb	w8, [sp, #79]
	tbnz	w8, #31, LBB69_17
	b	LBB69_18
Lfunc_end20:
	.cfi_endproc
	.section	__TEXT,__gcc_except_tab
	.p2align	2
GCC_except_table69:
Lexception20:
	.byte	255                             ; @LPStart Encoding = omit
	.byte	255                             ; @TType Encoding = omit
	.byte	1                               ; Call site Encoding = uleb128
	.uleb128 Lcst_end20-Lcst_begin20
Lcst_begin20:
	.uleb128 Lfunc_begin20-Lfunc_begin20    ; >> Call Site 1 <<
	.uleb128 Ltmp270-Lfunc_begin20          ;   Call between Lfunc_begin20 and Ltmp270
	.byte	0                               ;     has no landing pad
	.byte	0                               ;   On action: cleanup
	.uleb128 Ltmp270-Lfunc_begin20          ; >> Call Site 2 <<
	.uleb128 Ltmp271-Ltmp270                ;   Call between Ltmp270 and Ltmp271
	.uleb128 Ltmp272-Lfunc_begin20          ;     jumps to Ltmp272
	.byte	0                               ;   On action: cleanup
	.uleb128 Ltmp273-Lfunc_begin20          ; >> Call Site 3 <<
	.uleb128 Ltmp274-Ltmp273                ;   Call between Ltmp273 and Ltmp274
	.uleb128 Ltmp275-Lfunc_begin20          ;     jumps to Ltmp275
	.byte	0                               ;   On action: cleanup
	.uleb128 Ltmp276-Lfunc_begin20          ; >> Call Site 4 <<
	.uleb128 Ltmp277-Ltmp276                ;   Call between Ltmp276 and Ltmp277
	.uleb128 Ltmp278-Lfunc_begin20          ;     jumps to Ltmp278
	.byte	0                               ;   On action: cleanup
	.uleb128 Ltmp279-Lfunc_begin20          ; >> Call Site 5 <<
	.uleb128 Ltmp280-Ltmp279                ;   Call between Ltmp279 and Ltmp280
	.uleb128 Ltmp281-Lfunc_begin20          ;     jumps to Ltmp281
	.byte	0                               ;   On action: cleanup
	.uleb128 Ltmp280-Lfunc_begin20          ; >> Call Site 6 <<
	.uleb128 Lfunc_end20-Ltmp280            ;   Call between Ltmp280 and Lfunc_end20
	.byte	0                               ;     has no landing pad
	.byte	0                               ;   On action: cleanup
Lcst_end20:
	.p2align	2
                                        ; -- End function
	.section	__TEXT,__literal16,16byte_literals
	.p2align	4                               ; -- Begin function _ZN8big_ints8describeEv
lCPI70_0:
	.quad	65                              ; 0x41
	.quad	-9223372036854775728            ; 0x8000000000000050
	.section	__TEXT,__text,regular,pure_instructions
	.globl	__ZN8big_ints8describeEv
	.weak_def_can_be_hidden	__ZN8big_ints8describeEv
	.p2align	2
__ZN8big_ints8describeEv:               ; @_ZN8big_ints8describeEv
	.cfi_startproc
; %bb.0:
	stp	x20, x19, [sp, #-32]!           ; 16-byte Folded Spill
	stp	x29, x30, [sp, #16]             ; 16-byte Folded Spill
	add	x29, sp, #16                    ; =16
	.cfi_def_cfa w29, 16
	.cfi_offset w30, -8
	.cfi_offset w29, -16
	.cfi_offset w19, -24
	.cfi_offset w20, -32
	mov	x19, x8
	mov	w0, #80
	bl	__Znwm
	str	x0, [x19]
Lloh301:
	adrp	x8, lCPI70_0@PAGE
Lloh302:
	ldr	q0, [x8, lCPI70_0@PAGEOFF]
	stur	q0, [x19, #8]
	mov	w8, #33
	strb	w8, [x0, #64]
Lloh303:
	adrp	x8, l_.str.44@PAGE
Lloh304:
	add	x8, x8, l_.str.44@PAGEOFF
	ldp	q0, q1, [x8, #32]
	ldp	q3, q2, [x8]
	stp	q0, q1, [x0, #32]
	stp	q3, q2, [x0]
	strb	wzr, [x0, #65]
	ldp	x29, x30, [sp, #16]             ; 16-byte Folded Reload
	ldp	x20, x19, [sp], #32             ; 16-byte Folded Reload
	ret
	.loh AdrpAdd	Lloh303, Lloh304
	.loh AdrpLdr	Lloh301, Lloh302
	.cfi_endproc
                                        ; -- End function
	.globl	__ZN8big_intsD1Ev               ; -- Begin function _ZN8big_intsD1Ev
	.weak_def_can_be_hidden	__ZN8big_intsD1Ev
	.p2align	2
__ZN8big_intsD1Ev:                      ; @_ZN8big_intsD1Ev
	.cfi_startproc
; %bb.0:
	stp	x20, x19, [sp, #-32]!           ; 16-byte Folded Spill
	stp	x29, x30, [sp, #16]             ; 16-byte Folded Spill
	add	x29, sp, #16                    ; =16
	.cfi_def_cfa w29, 16
	.cfi_offset w30, -8
	.cfi_offset w29, -16
	.cfi_offset w19, -24
	.cfi_offset w20, -32
	mov	x19, x0
Lloh305:
	adrp	x8, __ZTV8big_ints@GOTPAGE
Lloh306:
	ldr	x8, [x8, __ZTV8big_ints@GOTPAGEOFF]
	add	x8, x8, #16                     ; =16
Lloh307:
	adrp	x9, __ZTV12simple_int64@GOTPAGE
Lloh308:
	ldr	x9, [x9, __ZTV12simple_int64@GOTPAGEOFF]
	add	x9, x9, #16                     ; =16
	stp	x8, x9, [x0], #16
	bl	__ZNSt3__113random_deviceD1Ev
	mov	x0, x19
	ldp	x29, x30, [sp, #16]             ; 16-byte Folded Reload
	ldp	x20, x19, [sp], #32             ; 16-byte Folded Reload
	ret
	.loh AdrpLdrGot	Lloh307, Lloh308
	.loh AdrpLdrGot	Lloh305, Lloh306
	.cfi_endproc
                                        ; -- End function
	.globl	__ZN8big_intsD0Ev               ; -- Begin function _ZN8big_intsD0Ev
	.weak_def_can_be_hidden	__ZN8big_intsD0Ev
	.p2align	2
__ZN8big_intsD0Ev:                      ; @_ZN8big_intsD0Ev
	.cfi_startproc
; %bb.0:
	stp	x20, x19, [sp, #-32]!           ; 16-byte Folded Spill
	stp	x29, x30, [sp, #16]             ; 16-byte Folded Spill
	add	x29, sp, #16                    ; =16
	.cfi_def_cfa w29, 16
	.cfi_offset w30, -8
	.cfi_offset w29, -16
	.cfi_offset w19, -24
	.cfi_offset w20, -32
	mov	x19, x0
Lloh309:
	adrp	x8, __ZTV8big_ints@GOTPAGE
Lloh310:
	ldr	x8, [x8, __ZTV8big_ints@GOTPAGEOFF]
	add	x8, x8, #16                     ; =16
Lloh311:
	adrp	x9, __ZTV12simple_int64@GOTPAGE
Lloh312:
	ldr	x9, [x9, __ZTV12simple_int64@GOTPAGEOFF]
	add	x9, x9, #16                     ; =16
	stp	x8, x9, [x0], #16
	bl	__ZNSt3__113random_deviceD1Ev
	mov	x0, x19
	ldp	x29, x30, [sp, #16]             ; 16-byte Folded Reload
	ldp	x20, x19, [sp], #32             ; 16-byte Folded Reload
	b	__ZdlPv
	.loh AdrpLdrGot	Lloh311, Lloh312
	.loh AdrpLdrGot	Lloh309, Lloh310
	.cfi_endproc
                                        ; -- End function
	.globl	__ZNSt3__124__put_character_sequenceIcNS_11char_traitsIcEEEERNS_13basic_ostreamIT_T0_EES7_PKS4_m ; -- Begin function _ZNSt3__124__put_character_sequenceIcNS_11char_traitsIcEEEERNS_13basic_ostreamIT_T0_EES7_PKS4_m
	.weak_def_can_be_hidden	__ZNSt3__124__put_character_sequenceIcNS_11char_traitsIcEEEERNS_13basic_ostreamIT_T0_EES7_PKS4_m
	.p2align	2
__ZNSt3__124__put_character_sequenceIcNS_11char_traitsIcEEEERNS_13basic_ostreamIT_T0_EES7_PKS4_m: ; @_ZNSt3__124__put_character_sequenceIcNS_11char_traitsIcEEEERNS_13basic_ostreamIT_T0_EES7_PKS4_m
Lfunc_begin21:
	.cfi_startproc
	.cfi_personality 155, ___gxx_personality_v0
	.cfi_lsda 16, Lexception21
; %bb.0:
	sub	sp, sp, #112                    ; =112
	stp	x26, x25, [sp, #32]             ; 16-byte Folded Spill
	stp	x24, x23, [sp, #48]             ; 16-byte Folded Spill
	stp	x22, x21, [sp, #64]             ; 16-byte Folded Spill
	stp	x20, x19, [sp, #80]             ; 16-byte Folded Spill
	stp	x29, x30, [sp, #96]             ; 16-byte Folded Spill
	add	x29, sp, #96                    ; =96
	.cfi_def_cfa w29, 16
	.cfi_offset w30, -8
	.cfi_offset w29, -16
	.cfi_offset w19, -24
	.cfi_offset w20, -32
	.cfi_offset w21, -40
	.cfi_offset w22, -48
	.cfi_offset w23, -56
	.cfi_offset w24, -64
	.cfi_offset w25, -72
	.cfi_offset w26, -80
	mov	x21, x2
	mov	x20, x1
	mov	x19, x0
Ltmp282:
	add	x0, sp, #8                      ; =8
	mov	x1, x19
	bl	__ZNSt3__113basic_ostreamIcNS_11char_traitsIcEEE6sentryC1ERS3_
Ltmp283:
; %bb.1:
	ldrb	w8, [sp, #8]
	cbz	w8, LBB73_10
; %bb.2:
	ldr	x8, [x19]
	ldur	x8, [x8, #-24]
	add	x22, x19, x8
	ldr	x23, [x22, #40]
	ldr	w25, [x22, #8]
	ldr	w24, [x22, #144]
	cmn	w24, #1                         ; =1
	b.ne	LBB73_7
; %bb.3:
Ltmp285:
	add	x8, sp, #24                     ; =24
	mov	x0, x22
	bl	__ZNKSt3__18ios_base6getlocEv
Ltmp286:
; %bb.4:
Ltmp287:
Lloh313:
	adrp	x1, __ZNSt3__15ctypeIcE2idE@GOTPAGE
Lloh314:
	ldr	x1, [x1, __ZNSt3__15ctypeIcE2idE@GOTPAGEOFF]
	add	x0, sp, #24                     ; =24
	bl	__ZNKSt3__16locale9use_facetERNS0_2idE
Ltmp288:
; %bb.5:
	ldr	x8, [x0]
	ldr	x8, [x8, #56]
Ltmp289:
	mov	w1, #32
	blr	x8
Ltmp290:
; %bb.6:
	mov	x24, x0
	add	x0, sp, #24                     ; =24
	bl	__ZNSt3__16localeD1Ev
	str	w24, [x22, #144]
LBB73_7:
	add	x3, x20, x21
	mov	w8, #176
	and	w8, w25, w8
	cmp	w8, #32                         ; =32
	csel	x2, x3, x20, eq
Ltmp292:
	sxtb	w5, w24
	mov	x0, x23
	mov	x1, x20
	mov	x4, x22
	bl	__ZNSt3__116__pad_and_outputIcNS_11char_traitsIcEEEENS_19ostreambuf_iteratorIT_T0_EES6_PKS4_S8_S8_RNS_8ios_baseES4_
Ltmp293:
; %bb.8:
	cbnz	x0, LBB73_10
; %bb.9:
	ldr	x8, [x19]
	ldur	x8, [x8, #-24]
	add	x0, x19, x8
	ldr	w8, [x0, #32]
	mov	w9, #5
	orr	w1, w8, w9
Ltmp295:
	bl	__ZNSt3__18ios_base5clearEj
Ltmp296:
LBB73_10:
	add	x0, sp, #8                      ; =8
	bl	__ZNSt3__113basic_ostreamIcNS_11char_traitsIcEEE6sentryD1Ev
LBB73_11:
	mov	x0, x19
	ldp	x29, x30, [sp, #96]             ; 16-byte Folded Reload
	ldp	x20, x19, [sp, #80]             ; 16-byte Folded Reload
	ldp	x22, x21, [sp, #64]             ; 16-byte Folded Reload
	ldp	x24, x23, [sp, #48]             ; 16-byte Folded Reload
	ldp	x26, x25, [sp, #32]             ; 16-byte Folded Reload
	add	sp, sp, #112                    ; =112
	ret
LBB73_12:
Ltmp297:
	b	LBB73_15
LBB73_13:
Ltmp291:
	mov	x20, x0
	add	x0, sp, #24                     ; =24
	bl	__ZNSt3__16localeD1Ev
	b	LBB73_16
LBB73_14:
Ltmp294:
LBB73_15:
	mov	x20, x0
LBB73_16:
	add	x0, sp, #8                      ; =8
	bl	__ZNSt3__113basic_ostreamIcNS_11char_traitsIcEEE6sentryD1Ev
	b	LBB73_18
LBB73_17:
Ltmp284:
	mov	x20, x0
LBB73_18:
	mov	x0, x20
	bl	___cxa_begin_catch
	ldr	x8, [x19]
	ldur	x8, [x8, #-24]
	add	x0, x19, x8
Ltmp298:
	bl	__ZNSt3__18ios_base33__set_badbit_and_consider_rethrowEv
Ltmp299:
; %bb.19:
	bl	___cxa_end_catch
	b	LBB73_11
LBB73_20:
Ltmp300:
	mov	x19, x0
Ltmp301:
	bl	___cxa_end_catch
Ltmp302:
; %bb.21:
	mov	x0, x19
	bl	__Unwind_Resume
	brk	#0x1
LBB73_22:
Ltmp303:
	bl	___clang_call_terminate
	.loh AdrpLdrGot	Lloh313, Lloh314
Lfunc_end21:
	.cfi_endproc
	.section	__TEXT,__gcc_except_tab
	.p2align	2
GCC_except_table73:
Lexception21:
	.byte	255                             ; @LPStart Encoding = omit
	.byte	155                             ; @TType Encoding = indirect pcrel sdata4
	.uleb128 Lttbase3-Lttbaseref3
Lttbaseref3:
	.byte	1                               ; Call site Encoding = uleb128
	.uleb128 Lcst_end21-Lcst_begin21
Lcst_begin21:
	.uleb128 Ltmp282-Lfunc_begin21          ; >> Call Site 1 <<
	.uleb128 Ltmp283-Ltmp282                ;   Call between Ltmp282 and Ltmp283
	.uleb128 Ltmp284-Lfunc_begin21          ;     jumps to Ltmp284
	.byte	1                               ;   On action: 1
	.uleb128 Ltmp285-Lfunc_begin21          ; >> Call Site 2 <<
	.uleb128 Ltmp286-Ltmp285                ;   Call between Ltmp285 and Ltmp286
	.uleb128 Ltmp294-Lfunc_begin21          ;     jumps to Ltmp294
	.byte	1                               ;   On action: 1
	.uleb128 Ltmp287-Lfunc_begin21          ; >> Call Site 3 <<
	.uleb128 Ltmp290-Ltmp287                ;   Call between Ltmp287 and Ltmp290
	.uleb128 Ltmp291-Lfunc_begin21          ;     jumps to Ltmp291
	.byte	1                               ;   On action: 1
	.uleb128 Ltmp292-Lfunc_begin21          ; >> Call Site 4 <<
	.uleb128 Ltmp293-Ltmp292                ;   Call between Ltmp292 and Ltmp293
	.uleb128 Ltmp294-Lfunc_begin21          ;     jumps to Ltmp294
	.byte	1                               ;   On action: 1
	.uleb128 Ltmp295-Lfunc_begin21          ; >> Call Site 5 <<
	.uleb128 Ltmp296-Ltmp295                ;   Call between Ltmp295 and Ltmp296
	.uleb128 Ltmp297-Lfunc_begin21          ;     jumps to Ltmp297
	.byte	1                               ;   On action: 1
	.uleb128 Ltmp296-Lfunc_begin21          ; >> Call Site 6 <<
	.uleb128 Ltmp298-Ltmp296                ;   Call between Ltmp296 and Ltmp298
	.byte	0                               ;     has no landing pad
	.byte	0                               ;   On action: cleanup
	.uleb128 Ltmp298-Lfunc_begin21          ; >> Call Site 7 <<
	.uleb128 Ltmp299-Ltmp298                ;   Call between Ltmp298 and Ltmp299
	.uleb128 Ltmp300-Lfunc_begin21          ;     jumps to Ltmp300
	.byte	0                               ;   On action: cleanup
	.uleb128 Ltmp299-Lfunc_begin21          ; >> Call Site 8 <<
	.uleb128 Ltmp301-Ltmp299                ;   Call between Ltmp299 and Ltmp301
	.byte	0                               ;     has no landing pad
	.byte	0                               ;   On action: cleanup
	.uleb128 Ltmp301-Lfunc_begin21          ; >> Call Site 9 <<
	.uleb128 Ltmp302-Ltmp301                ;   Call between Ltmp301 and Ltmp302
	.uleb128 Ltmp303-Lfunc_begin21          ;     jumps to Ltmp303
	.byte	1                               ;   On action: 1
	.uleb128 Ltmp302-Lfunc_begin21          ; >> Call Site 10 <<
	.uleb128 Lfunc_end21-Ltmp302            ;   Call between Ltmp302 and Lfunc_end21
	.byte	0                               ;     has no landing pad
	.byte	0                               ;   On action: cleanup
Lcst_end21:
	.byte	1                               ; >> Action Record 1 <<
                                        ;   Catch TypeInfo 1
	.byte	0                               ;   No further actions
	.p2align	2
                                        ; >> Catch TypeInfos <<
	.long	0                               ; TypeInfo 1
Lttbase3:
	.p2align	2
                                        ; -- End function
	.section	__TEXT,__text,regular,pure_instructions
	.private_extern	__ZNSt3__116__pad_and_outputIcNS_11char_traitsIcEEEENS_19ostreambuf_iteratorIT_T0_EES6_PKS4_S8_S8_RNS_8ios_baseES4_ ; -- Begin function _ZNSt3__116__pad_and_outputIcNS_11char_traitsIcEEEENS_19ostreambuf_iteratorIT_T0_EES6_PKS4_S8_S8_RNS_8ios_baseES4_
	.globl	__ZNSt3__116__pad_and_outputIcNS_11char_traitsIcEEEENS_19ostreambuf_iteratorIT_T0_EES6_PKS4_S8_S8_RNS_8ios_baseES4_
	.weak_def_can_be_hidden	__ZNSt3__116__pad_and_outputIcNS_11char_traitsIcEEEENS_19ostreambuf_iteratorIT_T0_EES6_PKS4_S8_S8_RNS_8ios_baseES4_
	.p2align	2
